
rtarget:     file format elf64-x86-64


Disassembly of section .init:

0000000000400c60 <_init>:
  400c60:	48 83 ec 08          	sub    $0x8,%rsp
  400c64:	48 8b 05 8d 43 20 00 	mov    0x20438d(%rip),%rax        # 604ff8 <_DYNAMIC+0x1d0>
  400c6b:	48 85 c0             	test   %rax,%rax
  400c6e:	74 05                	je     400c75 <_init+0x15>
  400c70:	e8 2b 01 00 00       	callq  400da0 <__gmon_start__@plt>
  400c75:	48 83 c4 08          	add    $0x8,%rsp
  400c79:	c3                   	retq   

Disassembly of section .plt:

0000000000400c80 <strcasecmp@plt-0x10>:
  400c80:	ff 35 82 43 20 00    	pushq  0x204382(%rip)        # 605008 <_GLOBAL_OFFSET_TABLE_+0x8>
  400c86:	ff 25 84 43 20 00    	jmpq   *0x204384(%rip)        # 605010 <_GLOBAL_OFFSET_TABLE_+0x10>
  400c8c:	0f 1f 40 00          	nopl   0x0(%rax)

0000000000400c90 <strcasecmp@plt>:
  400c90:	ff 25 82 43 20 00    	jmpq   *0x204382(%rip)        # 605018 <_GLOBAL_OFFSET_TABLE_+0x18>
  400c96:	68 00 00 00 00       	pushq  $0x0
  400c9b:	e9 e0 ff ff ff       	jmpq   400c80 <_init+0x20>

0000000000400ca0 <__errno_location@plt>:
  400ca0:	ff 25 7a 43 20 00    	jmpq   *0x20437a(%rip)        # 605020 <_GLOBAL_OFFSET_TABLE_+0x20>
  400ca6:	68 01 00 00 00       	pushq  $0x1
  400cab:	e9 d0 ff ff ff       	jmpq   400c80 <_init+0x20>

0000000000400cb0 <srandom@plt>:
  400cb0:	ff 25 72 43 20 00    	jmpq   *0x204372(%rip)        # 605028 <_GLOBAL_OFFSET_TABLE_+0x28>
  400cb6:	68 02 00 00 00       	pushq  $0x2
  400cbb:	e9 c0 ff ff ff       	jmpq   400c80 <_init+0x20>

0000000000400cc0 <strncmp@plt>:
  400cc0:	ff 25 6a 43 20 00    	jmpq   *0x20436a(%rip)        # 605030 <_GLOBAL_OFFSET_TABLE_+0x30>
  400cc6:	68 03 00 00 00       	pushq  $0x3
  400ccb:	e9 b0 ff ff ff       	jmpq   400c80 <_init+0x20>

0000000000400cd0 <strcpy@plt>:
  400cd0:	ff 25 62 43 20 00    	jmpq   *0x204362(%rip)        # 605038 <_GLOBAL_OFFSET_TABLE_+0x38>
  400cd6:	68 04 00 00 00       	pushq  $0x4
  400cdb:	e9 a0 ff ff ff       	jmpq   400c80 <_init+0x20>

0000000000400ce0 <puts@plt>:
  400ce0:	ff 25 5a 43 20 00    	jmpq   *0x20435a(%rip)        # 605040 <_GLOBAL_OFFSET_TABLE_+0x40>
  400ce6:	68 05 00 00 00       	pushq  $0x5
  400ceb:	e9 90 ff ff ff       	jmpq   400c80 <_init+0x20>

0000000000400cf0 <write@plt>:
  400cf0:	ff 25 52 43 20 00    	jmpq   *0x204352(%rip)        # 605048 <_GLOBAL_OFFSET_TABLE_+0x48>
  400cf6:	68 06 00 00 00       	pushq  $0x6
  400cfb:	e9 80 ff ff ff       	jmpq   400c80 <_init+0x20>

0000000000400d00 <__stack_chk_fail@plt>:
  400d00:	ff 25 4a 43 20 00    	jmpq   *0x20434a(%rip)        # 605050 <_GLOBAL_OFFSET_TABLE_+0x50>
  400d06:	68 07 00 00 00       	pushq  $0x7
  400d0b:	e9 70 ff ff ff       	jmpq   400c80 <_init+0x20>

0000000000400d10 <mmap@plt>:
  400d10:	ff 25 42 43 20 00    	jmpq   *0x204342(%rip)        # 605058 <_GLOBAL_OFFSET_TABLE_+0x58>
  400d16:	68 08 00 00 00       	pushq  $0x8
  400d1b:	e9 60 ff ff ff       	jmpq   400c80 <_init+0x20>

0000000000400d20 <memset@plt>:
  400d20:	ff 25 3a 43 20 00    	jmpq   *0x20433a(%rip)        # 605060 <_GLOBAL_OFFSET_TABLE_+0x60>
  400d26:	68 09 00 00 00       	pushq  $0x9
  400d2b:	e9 50 ff ff ff       	jmpq   400c80 <_init+0x20>

0000000000400d30 <alarm@plt>:
  400d30:	ff 25 32 43 20 00    	jmpq   *0x204332(%rip)        # 605068 <_GLOBAL_OFFSET_TABLE_+0x68>
  400d36:	68 0a 00 00 00       	pushq  $0xa
  400d3b:	e9 40 ff ff ff       	jmpq   400c80 <_init+0x20>

0000000000400d40 <close@plt>:
  400d40:	ff 25 2a 43 20 00    	jmpq   *0x20432a(%rip)        # 605070 <_GLOBAL_OFFSET_TABLE_+0x70>
  400d46:	68 0b 00 00 00       	pushq  $0xb
  400d4b:	e9 30 ff ff ff       	jmpq   400c80 <_init+0x20>

0000000000400d50 <read@plt>:
  400d50:	ff 25 22 43 20 00    	jmpq   *0x204322(%rip)        # 605078 <_GLOBAL_OFFSET_TABLE_+0x78>
  400d56:	68 0c 00 00 00       	pushq  $0xc
  400d5b:	e9 20 ff ff ff       	jmpq   400c80 <_init+0x20>

0000000000400d60 <__libc_start_main@plt>:
  400d60:	ff 25 1a 43 20 00    	jmpq   *0x20431a(%rip)        # 605080 <_GLOBAL_OFFSET_TABLE_+0x80>
  400d66:	68 0d 00 00 00       	pushq  $0xd
  400d6b:	e9 10 ff ff ff       	jmpq   400c80 <_init+0x20>

0000000000400d70 <signal@plt>:
  400d70:	ff 25 12 43 20 00    	jmpq   *0x204312(%rip)        # 605088 <_GLOBAL_OFFSET_TABLE_+0x88>
  400d76:	68 0e 00 00 00       	pushq  $0xe
  400d7b:	e9 00 ff ff ff       	jmpq   400c80 <_init+0x20>

0000000000400d80 <gethostbyname@plt>:
  400d80:	ff 25 0a 43 20 00    	jmpq   *0x20430a(%rip)        # 605090 <_GLOBAL_OFFSET_TABLE_+0x90>
  400d86:	68 0f 00 00 00       	pushq  $0xf
  400d8b:	e9 f0 fe ff ff       	jmpq   400c80 <_init+0x20>

0000000000400d90 <__memmove_chk@plt>:
  400d90:	ff 25 02 43 20 00    	jmpq   *0x204302(%rip)        # 605098 <_GLOBAL_OFFSET_TABLE_+0x98>
  400d96:	68 10 00 00 00       	pushq  $0x10
  400d9b:	e9 e0 fe ff ff       	jmpq   400c80 <_init+0x20>

0000000000400da0 <__gmon_start__@plt>:
  400da0:	ff 25 fa 42 20 00    	jmpq   *0x2042fa(%rip)        # 6050a0 <_GLOBAL_OFFSET_TABLE_+0xa0>
  400da6:	68 11 00 00 00       	pushq  $0x11
  400dab:	e9 d0 fe ff ff       	jmpq   400c80 <_init+0x20>

0000000000400db0 <strtol@plt>:
  400db0:	ff 25 f2 42 20 00    	jmpq   *0x2042f2(%rip)        # 6050a8 <_GLOBAL_OFFSET_TABLE_+0xa8>
  400db6:	68 12 00 00 00       	pushq  $0x12
  400dbb:	e9 c0 fe ff ff       	jmpq   400c80 <_init+0x20>

0000000000400dc0 <memcpy@plt>:
  400dc0:	ff 25 ea 42 20 00    	jmpq   *0x2042ea(%rip)        # 6050b0 <_GLOBAL_OFFSET_TABLE_+0xb0>
  400dc6:	68 13 00 00 00       	pushq  $0x13
  400dcb:	e9 b0 fe ff ff       	jmpq   400c80 <_init+0x20>

0000000000400dd0 <time@plt>:
  400dd0:	ff 25 e2 42 20 00    	jmpq   *0x2042e2(%rip)        # 6050b8 <_GLOBAL_OFFSET_TABLE_+0xb8>
  400dd6:	68 14 00 00 00       	pushq  $0x14
  400ddb:	e9 a0 fe ff ff       	jmpq   400c80 <_init+0x20>

0000000000400de0 <random@plt>:
  400de0:	ff 25 da 42 20 00    	jmpq   *0x2042da(%rip)        # 6050c0 <_GLOBAL_OFFSET_TABLE_+0xc0>
  400de6:	68 15 00 00 00       	pushq  $0x15
  400deb:	e9 90 fe ff ff       	jmpq   400c80 <_init+0x20>

0000000000400df0 <_IO_getc@plt>:
  400df0:	ff 25 d2 42 20 00    	jmpq   *0x2042d2(%rip)        # 6050c8 <_GLOBAL_OFFSET_TABLE_+0xc8>
  400df6:	68 16 00 00 00       	pushq  $0x16
  400dfb:	e9 80 fe ff ff       	jmpq   400c80 <_init+0x20>

0000000000400e00 <__isoc99_sscanf@plt>:
  400e00:	ff 25 ca 42 20 00    	jmpq   *0x2042ca(%rip)        # 6050d0 <_GLOBAL_OFFSET_TABLE_+0xd0>
  400e06:	68 17 00 00 00       	pushq  $0x17
  400e0b:	e9 70 fe ff ff       	jmpq   400c80 <_init+0x20>

0000000000400e10 <munmap@plt>:
  400e10:	ff 25 c2 42 20 00    	jmpq   *0x2042c2(%rip)        # 6050d8 <_GLOBAL_OFFSET_TABLE_+0xd8>
  400e16:	68 18 00 00 00       	pushq  $0x18
  400e1b:	e9 60 fe ff ff       	jmpq   400c80 <_init+0x20>

0000000000400e20 <__printf_chk@plt>:
  400e20:	ff 25 ba 42 20 00    	jmpq   *0x2042ba(%rip)        # 6050e0 <_GLOBAL_OFFSET_TABLE_+0xe0>
  400e26:	68 19 00 00 00       	pushq  $0x19
  400e2b:	e9 50 fe ff ff       	jmpq   400c80 <_init+0x20>

0000000000400e30 <fopen@plt>:
  400e30:	ff 25 b2 42 20 00    	jmpq   *0x2042b2(%rip)        # 6050e8 <_GLOBAL_OFFSET_TABLE_+0xe8>
  400e36:	68 1a 00 00 00       	pushq  $0x1a
  400e3b:	e9 40 fe ff ff       	jmpq   400c80 <_init+0x20>

0000000000400e40 <getopt@plt>:
  400e40:	ff 25 aa 42 20 00    	jmpq   *0x2042aa(%rip)        # 6050f0 <_GLOBAL_OFFSET_TABLE_+0xf0>
  400e46:	68 1b 00 00 00       	pushq  $0x1b
  400e4b:	e9 30 fe ff ff       	jmpq   400c80 <_init+0x20>

0000000000400e50 <strtoul@plt>:
  400e50:	ff 25 a2 42 20 00    	jmpq   *0x2042a2(%rip)        # 6050f8 <_GLOBAL_OFFSET_TABLE_+0xf8>
  400e56:	68 1c 00 00 00       	pushq  $0x1c
  400e5b:	e9 20 fe ff ff       	jmpq   400c80 <_init+0x20>

0000000000400e60 <gethostname@plt>:
  400e60:	ff 25 9a 42 20 00    	jmpq   *0x20429a(%rip)        # 605100 <_GLOBAL_OFFSET_TABLE_+0x100>
  400e66:	68 1d 00 00 00       	pushq  $0x1d
  400e6b:	e9 10 fe ff ff       	jmpq   400c80 <_init+0x20>

0000000000400e70 <exit@plt>:
  400e70:	ff 25 92 42 20 00    	jmpq   *0x204292(%rip)        # 605108 <_GLOBAL_OFFSET_TABLE_+0x108>
  400e76:	68 1e 00 00 00       	pushq  $0x1e
  400e7b:	e9 00 fe ff ff       	jmpq   400c80 <_init+0x20>

0000000000400e80 <connect@plt>:
  400e80:	ff 25 8a 42 20 00    	jmpq   *0x20428a(%rip)        # 605110 <_GLOBAL_OFFSET_TABLE_+0x110>
  400e86:	68 1f 00 00 00       	pushq  $0x1f
  400e8b:	e9 f0 fd ff ff       	jmpq   400c80 <_init+0x20>

0000000000400e90 <__fprintf_chk@plt>:
  400e90:	ff 25 82 42 20 00    	jmpq   *0x204282(%rip)        # 605118 <_GLOBAL_OFFSET_TABLE_+0x118>
  400e96:	68 20 00 00 00       	pushq  $0x20
  400e9b:	e9 e0 fd ff ff       	jmpq   400c80 <_init+0x20>

0000000000400ea0 <__sprintf_chk@plt>:
  400ea0:	ff 25 7a 42 20 00    	jmpq   *0x20427a(%rip)        # 605120 <_GLOBAL_OFFSET_TABLE_+0x120>
  400ea6:	68 21 00 00 00       	pushq  $0x21
  400eab:	e9 d0 fd ff ff       	jmpq   400c80 <_init+0x20>

0000000000400eb0 <socket@plt>:
  400eb0:	ff 25 72 42 20 00    	jmpq   *0x204272(%rip)        # 605128 <_GLOBAL_OFFSET_TABLE_+0x128>
  400eb6:	68 22 00 00 00       	pushq  $0x22
  400ebb:	e9 c0 fd ff ff       	jmpq   400c80 <_init+0x20>

Disassembly of section .text:

0000000000400ec0 <_start>:
  400ec0:	31 ed                	xor    %ebp,%ebp
  400ec2:	49 89 d1             	mov    %rdx,%r9
  400ec5:	5e                   	pop    %rsi
  400ec6:	48 89 e2             	mov    %rsp,%rdx
  400ec9:	48 83 e4 f0          	and    $0xfffffffffffffff0,%rsp
  400ecd:	50                   	push   %rax
  400ece:	54                   	push   %rsp
  400ecf:	49 c7 c0 c0 2f 40 00 	mov    $0x402fc0,%r8
  400ed6:	48 c7 c1 50 2f 40 00 	mov    $0x402f50,%rcx
  400edd:	48 c7 c7 bf 11 40 00 	mov    $0x4011bf,%rdi
  400ee4:	e8 77 fe ff ff       	callq  400d60 <__libc_start_main@plt>
  400ee9:	f4                   	hlt    
  400eea:	66 0f 1f 44 00 00    	nopw   0x0(%rax,%rax,1)

0000000000400ef0 <deregister_tm_clones>:
  400ef0:	b8 b7 54 60 00       	mov    $0x6054b7,%eax
  400ef5:	55                   	push   %rbp
  400ef6:	48 2d b0 54 60 00    	sub    $0x6054b0,%rax
  400efc:	48 83 f8 0e          	cmp    $0xe,%rax
  400f00:	48 89 e5             	mov    %rsp,%rbp
  400f03:	77 02                	ja     400f07 <deregister_tm_clones+0x17>
  400f05:	5d                   	pop    %rbp
  400f06:	c3                   	retq   
  400f07:	b8 00 00 00 00       	mov    $0x0,%eax
  400f0c:	48 85 c0             	test   %rax,%rax
  400f0f:	74 f4                	je     400f05 <deregister_tm_clones+0x15>
  400f11:	5d                   	pop    %rbp
  400f12:	bf b0 54 60 00       	mov    $0x6054b0,%edi
  400f17:	ff e0                	jmpq   *%rax
  400f19:	0f 1f 80 00 00 00 00 	nopl   0x0(%rax)

0000000000400f20 <register_tm_clones>:
  400f20:	b8 b0 54 60 00       	mov    $0x6054b0,%eax
  400f25:	55                   	push   %rbp
  400f26:	48 2d b0 54 60 00    	sub    $0x6054b0,%rax
  400f2c:	48 c1 f8 03          	sar    $0x3,%rax
  400f30:	48 89 e5             	mov    %rsp,%rbp
  400f33:	48 89 c2             	mov    %rax,%rdx
  400f36:	48 c1 ea 3f          	shr    $0x3f,%rdx
  400f3a:	48 01 d0             	add    %rdx,%rax
  400f3d:	48 d1 f8             	sar    %rax
  400f40:	75 02                	jne    400f44 <register_tm_clones+0x24>
  400f42:	5d                   	pop    %rbp
  400f43:	c3                   	retq   
  400f44:	ba 00 00 00 00       	mov    $0x0,%edx
  400f49:	48 85 d2             	test   %rdx,%rdx
  400f4c:	74 f4                	je     400f42 <register_tm_clones+0x22>
  400f4e:	5d                   	pop    %rbp
  400f4f:	48 89 c6             	mov    %rax,%rsi
  400f52:	bf b0 54 60 00       	mov    $0x6054b0,%edi
  400f57:	ff e2                	jmpq   *%rdx
  400f59:	0f 1f 80 00 00 00 00 	nopl   0x0(%rax)

0000000000400f60 <__do_global_dtors_aux>:
  400f60:	80 3d 89 45 20 00 00 	cmpb   $0x0,0x204589(%rip)        # 6054f0 <completed.6973>
  400f67:	75 11                	jne    400f7a <__do_global_dtors_aux+0x1a>
  400f69:	55                   	push   %rbp
  400f6a:	48 89 e5             	mov    %rsp,%rbp
  400f6d:	e8 7e ff ff ff       	callq  400ef0 <deregister_tm_clones>
  400f72:	5d                   	pop    %rbp
  400f73:	c6 05 76 45 20 00 01 	movb   $0x1,0x204576(%rip)        # 6054f0 <completed.6973>
  400f7a:	f3 c3                	repz retq 
  400f7c:	0f 1f 40 00          	nopl   0x0(%rax)

0000000000400f80 <frame_dummy>:
  400f80:	48 83 3d 98 3e 20 00 	cmpq   $0x0,0x203e98(%rip)        # 604e20 <__JCR_END__>
  400f87:	00 
  400f88:	74 1e                	je     400fa8 <frame_dummy+0x28>
  400f8a:	b8 00 00 00 00       	mov    $0x0,%eax
  400f8f:	48 85 c0             	test   %rax,%rax
  400f92:	74 14                	je     400fa8 <frame_dummy+0x28>
  400f94:	55                   	push   %rbp
  400f95:	bf 20 4e 60 00       	mov    $0x604e20,%edi
  400f9a:	48 89 e5             	mov    %rsp,%rbp
  400f9d:	ff d0                	callq  *%rax
  400f9f:	5d                   	pop    %rbp
  400fa0:	e9 7b ff ff ff       	jmpq   400f20 <register_tm_clones>
  400fa5:	0f 1f 00             	nopl   (%rax)
  400fa8:	e9 73 ff ff ff       	jmpq   400f20 <register_tm_clones>
  400fad:	0f 1f 00             	nopl   (%rax)

0000000000400fb0 <usage>:
  400fb0:	48 83 ec 08          	sub    $0x8,%rsp
  400fb4:	48 89 fa             	mov    %rdi,%rdx
  400fb7:	83 3d 6a 45 20 00 00 	cmpl   $0x0,0x20456a(%rip)        # 605528 <is_checker>
  400fbe:	74 3e                	je     400ffe <usage+0x4e>
  400fc0:	be d8 2f 40 00       	mov    $0x402fd8,%esi
  400fc5:	bf 01 00 00 00       	mov    $0x1,%edi
  400fca:	b8 00 00 00 00       	mov    $0x0,%eax
  400fcf:	e8 4c fe ff ff       	callq  400e20 <__printf_chk@plt>
  400fd4:	bf 10 30 40 00       	mov    $0x403010,%edi
  400fd9:	e8 02 fd ff ff       	callq  400ce0 <puts@plt>
  400fde:	bf 88 31 40 00       	mov    $0x403188,%edi
  400fe3:	e8 f8 fc ff ff       	callq  400ce0 <puts@plt>
  400fe8:	bf 38 30 40 00       	mov    $0x403038,%edi
  400fed:	e8 ee fc ff ff       	callq  400ce0 <puts@plt>
  400ff2:	bf a2 31 40 00       	mov    $0x4031a2,%edi
  400ff7:	e8 e4 fc ff ff       	callq  400ce0 <puts@plt>
  400ffc:	eb 32                	jmp    401030 <usage+0x80>
  400ffe:	be be 31 40 00       	mov    $0x4031be,%esi
  401003:	bf 01 00 00 00       	mov    $0x1,%edi
  401008:	b8 00 00 00 00       	mov    $0x0,%eax
  40100d:	e8 0e fe ff ff       	callq  400e20 <__printf_chk@plt>
  401012:	bf 60 30 40 00       	mov    $0x403060,%edi
  401017:	e8 c4 fc ff ff       	callq  400ce0 <puts@plt>
  40101c:	bf 88 30 40 00       	mov    $0x403088,%edi
  401021:	e8 ba fc ff ff       	callq  400ce0 <puts@plt>
  401026:	bf dc 31 40 00       	mov    $0x4031dc,%edi
  40102b:	e8 b0 fc ff ff       	callq  400ce0 <puts@plt>
  401030:	bf 00 00 00 00       	mov    $0x0,%edi
  401035:	e8 36 fe ff ff       	callq  400e70 <exit@plt>

000000000040103a <initialize_target>:
  40103a:	55                   	push   %rbp
  40103b:	53                   	push   %rbx
  40103c:	48 81 ec 18 21 00 00 	sub    $0x2118,%rsp
  401043:	89 f5                	mov    %esi,%ebp
  401045:	64 48 8b 04 25 28 00 	mov    %fs:0x28,%rax
  40104c:	00 00 
  40104e:	48 89 84 24 08 21 00 	mov    %rax,0x2108(%rsp)
  401055:	00 
  401056:	31 c0                	xor    %eax,%eax
  401058:	89 3d ba 44 20 00    	mov    %edi,0x2044ba(%rip)        # 605518 <check_level>
  40105e:	8b 3d 04 41 20 00    	mov    0x204104(%rip),%edi        # 605168 <target_id>
  401064:	e8 ba 1e 00 00       	callq  402f23 <gencookie>
  401069:	89 05 b5 44 20 00    	mov    %eax,0x2044b5(%rip)        # 605524 <cookie>
  40106f:	89 c7                	mov    %eax,%edi
  401071:	e8 ad 1e 00 00       	callq  402f23 <gencookie>
  401076:	89 05 a4 44 20 00    	mov    %eax,0x2044a4(%rip)        # 605520 <authkey>
  40107c:	8b 05 e6 40 20 00    	mov    0x2040e6(%rip),%eax        # 605168 <target_id>
  401082:	8d 78 01             	lea    0x1(%rax),%edi
  401085:	e8 26 fc ff ff       	callq  400cb0 <srandom@plt>
  40108a:	e8 51 fd ff ff       	callq  400de0 <random@plt>
  40108f:	89 c7                	mov    %eax,%edi
  401091:	e8 03 03 00 00       	callq  401399 <scramble>
  401096:	89 c3                	mov    %eax,%ebx
  401098:	85 ed                	test   %ebp,%ebp
  40109a:	74 18                	je     4010b4 <initialize_target+0x7a>
  40109c:	bf 00 00 00 00       	mov    $0x0,%edi
  4010a1:	e8 2a fd ff ff       	callq  400dd0 <time@plt>
  4010a6:	89 c7                	mov    %eax,%edi
  4010a8:	e8 03 fc ff ff       	callq  400cb0 <srandom@plt>
  4010ad:	e8 2e fd ff ff       	callq  400de0 <random@plt>
  4010b2:	eb 05                	jmp    4010b9 <initialize_target+0x7f>
  4010b4:	b8 00 00 00 00       	mov    $0x0,%eax
  4010b9:	01 c3                	add    %eax,%ebx
  4010bb:	0f b7 db             	movzwl %bx,%ebx
  4010be:	8d 04 dd 00 01 00 00 	lea    0x100(,%rbx,8),%eax
  4010c5:	89 c0                	mov    %eax,%eax
  4010c7:	48 89 05 d2 43 20 00 	mov    %rax,0x2043d2(%rip)        # 6054a0 <buf_offset>
  4010ce:	c6 05 73 50 20 00 72 	movb   $0x72,0x205073(%rip)        # 606148 <target_prefix>
  4010d5:	83 3d cc 43 20 00 00 	cmpl   $0x0,0x2043cc(%rip)        # 6054a8 <notify>
  4010dc:	0f 84 bb 00 00 00    	je     40119d <initialize_target+0x163>
  4010e2:	83 3d 3f 44 20 00 00 	cmpl   $0x0,0x20443f(%rip)        # 605528 <is_checker>
  4010e9:	0f 85 ae 00 00 00    	jne    40119d <initialize_target+0x163>
  4010ef:	be 00 01 00 00       	mov    $0x100,%esi
  4010f4:	48 89 e7             	mov    %rsp,%rdi
  4010f7:	e8 64 fd ff ff       	callq  400e60 <gethostname@plt>
  4010fc:	85 c0                	test   %eax,%eax
  4010fe:	74 25                	je     401125 <initialize_target+0xeb>
  401100:	bf b8 30 40 00       	mov    $0x4030b8,%edi
  401105:	e8 d6 fb ff ff       	callq  400ce0 <puts@plt>
  40110a:	bf 08 00 00 00       	mov    $0x8,%edi
  40110f:	e8 5c fd ff ff       	callq  400e70 <exit@plt>
  401114:	48 89 e6             	mov    %rsp,%rsi
  401117:	e8 74 fb ff ff       	callq  400c90 <strcasecmp@plt>
  40111c:	85 c0                	test   %eax,%eax
  40111e:	74 21                	je     401141 <initialize_target+0x107>
  401120:	83 c3 01             	add    $0x1,%ebx
  401123:	eb 05                	jmp    40112a <initialize_target+0xf0>
  401125:	bb 00 00 00 00       	mov    $0x0,%ebx
  40112a:	48 63 c3             	movslq %ebx,%rax
  40112d:	48 8b 3c c5 80 51 60 	mov    0x605180(,%rax,8),%rdi
  401134:	00 
  401135:	48 85 ff             	test   %rdi,%rdi
  401138:	75 da                	jne    401114 <initialize_target+0xda>
  40113a:	b8 00 00 00 00       	mov    $0x0,%eax
  40113f:	eb 05                	jmp    401146 <initialize_target+0x10c>
  401141:	b8 01 00 00 00       	mov    $0x1,%eax
  401146:	85 c0                	test   %eax,%eax
  401148:	75 1c                	jne    401166 <initialize_target+0x12c>
  40114a:	48 89 e2             	mov    %rsp,%rdx
  40114d:	be f0 30 40 00       	mov    $0x4030f0,%esi
  401152:	bf 01 00 00 00       	mov    $0x1,%edi
  401157:	e8 c4 fc ff ff       	callq  400e20 <__printf_chk@plt>
  40115c:	bf 08 00 00 00       	mov    $0x8,%edi
  401161:	e8 0a fd ff ff       	callq  400e70 <exit@plt>
  401166:	48 8d bc 24 00 01 00 	lea    0x100(%rsp),%rdi
  40116d:	00 
  40116e:	e8 18 1b 00 00       	callq  402c8b <init_driver>
  401173:	85 c0                	test   %eax,%eax
  401175:	79 26                	jns    40119d <initialize_target+0x163>
  401177:	48 8d 94 24 00 01 00 	lea    0x100(%rsp),%rdx
  40117e:	00 
  40117f:	be 30 31 40 00       	mov    $0x403130,%esi
  401184:	bf 01 00 00 00       	mov    $0x1,%edi
  401189:	b8 00 00 00 00       	mov    $0x0,%eax
  40118e:	e8 8d fc ff ff       	callq  400e20 <__printf_chk@plt>
  401193:	bf 08 00 00 00       	mov    $0x8,%edi
  401198:	e8 d3 fc ff ff       	callq  400e70 <exit@plt>
  40119d:	48 8b 84 24 08 21 00 	mov    0x2108(%rsp),%rax
  4011a4:	00 
  4011a5:	64 48 33 04 25 28 00 	xor    %fs:0x28,%rax
  4011ac:	00 00 
  4011ae:	74 05                	je     4011b5 <initialize_target+0x17b>
  4011b0:	e8 4b fb ff ff       	callq  400d00 <__stack_chk_fail@plt>
  4011b5:	48 81 c4 18 21 00 00 	add    $0x2118,%rsp
  4011bc:	5b                   	pop    %rbx
  4011bd:	5d                   	pop    %rbp
  4011be:	c3                   	retq   

00000000004011bf <main>:
  4011bf:	41 56                	push   %r14
  4011c1:	41 55                	push   %r13
  4011c3:	41 54                	push   %r12
  4011c5:	55                   	push   %rbp
  4011c6:	53                   	push   %rbx
  4011c7:	41 89 fc             	mov    %edi,%r12d
  4011ca:	48 89 f3             	mov    %rsi,%rbx
  4011cd:	be fe 1f 40 00       	mov    $0x401ffe,%esi
  4011d2:	bf 0b 00 00 00       	mov    $0xb,%edi
  4011d7:	e8 94 fb ff ff       	callq  400d70 <signal@plt>
  4011dc:	be b0 1f 40 00       	mov    $0x401fb0,%esi
  4011e1:	bf 07 00 00 00       	mov    $0x7,%edi
  4011e6:	e8 85 fb ff ff       	callq  400d70 <signal@plt>
  4011eb:	be 4c 20 40 00       	mov    $0x40204c,%esi
  4011f0:	bf 04 00 00 00       	mov    $0x4,%edi
  4011f5:	e8 76 fb ff ff       	callq  400d70 <signal@plt>
  4011fa:	83 3d 27 43 20 00 00 	cmpl   $0x0,0x204327(%rip)        # 605528 <is_checker>
  401201:	74 20                	je     401223 <main+0x64>
  401203:	be 9a 20 40 00       	mov    $0x40209a,%esi
  401208:	bf 0e 00 00 00       	mov    $0xe,%edi
  40120d:	e8 5e fb ff ff       	callq  400d70 <signal@plt>
  401212:	bf 05 00 00 00       	mov    $0x5,%edi
  401217:	e8 14 fb ff ff       	callq  400d30 <alarm@plt>
  40121c:	bd fa 31 40 00       	mov    $0x4031fa,%ebp
  401221:	eb 05                	jmp    401228 <main+0x69>
  401223:	bd f5 31 40 00       	mov    $0x4031f5,%ebp
  401228:	48 8b 05 91 42 20 00 	mov    0x204291(%rip),%rax        # 6054c0 <stdin@@GLIBC_2.2.5>
  40122f:	48 89 05 da 42 20 00 	mov    %rax,0x2042da(%rip)        # 605510 <infile>
  401236:	41 bd 00 00 00 00    	mov    $0x0,%r13d
  40123c:	41 be 00 00 00 00    	mov    $0x0,%r14d
  401242:	e9 c6 00 00 00       	jmpq   40130d <main+0x14e>
  401247:	83 e8 61             	sub    $0x61,%eax
  40124a:	3c 10                	cmp    $0x10,%al
  40124c:	0f 87 9c 00 00 00    	ja     4012ee <main+0x12f>
  401252:	0f b6 c0             	movzbl %al,%eax
  401255:	ff 24 c5 40 32 40 00 	jmpq   *0x403240(,%rax,8)
  40125c:	48 8b 3b             	mov    (%rbx),%rdi
  40125f:	e8 4c fd ff ff       	callq  400fb0 <usage>
  401264:	be cd 34 40 00       	mov    $0x4034cd,%esi
  401269:	48 8b 3d 70 42 20 00 	mov    0x204270(%rip),%rdi        # 6054e0 <optarg@@GLIBC_2.2.5>
  401270:	e8 bb fb ff ff       	callq  400e30 <fopen@plt>
  401275:	48 89 05 94 42 20 00 	mov    %rax,0x204294(%rip)        # 605510 <infile>
  40127c:	48 85 c0             	test   %rax,%rax
  40127f:	0f 85 88 00 00 00    	jne    40130d <main+0x14e>
  401285:	48 8b 0d 54 42 20 00 	mov    0x204254(%rip),%rcx        # 6054e0 <optarg@@GLIBC_2.2.5>
  40128c:	ba 02 32 40 00       	mov    $0x403202,%edx
  401291:	be 01 00 00 00       	mov    $0x1,%esi
  401296:	48 8b 3d 4b 42 20 00 	mov    0x20424b(%rip),%rdi        # 6054e8 <stderr@@GLIBC_2.2.5>
  40129d:	e8 ee fb ff ff       	callq  400e90 <__fprintf_chk@plt>
  4012a2:	b8 01 00 00 00       	mov    $0x1,%eax
  4012a7:	e9 e4 00 00 00       	jmpq   401390 <main+0x1d1>
  4012ac:	ba 10 00 00 00       	mov    $0x10,%edx
  4012b1:	be 00 00 00 00       	mov    $0x0,%esi
  4012b6:	48 8b 3d 23 42 20 00 	mov    0x204223(%rip),%rdi        # 6054e0 <optarg@@GLIBC_2.2.5>
  4012bd:	e8 8e fb ff ff       	callq  400e50 <strtoul@plt>
  4012c2:	41 89 c6             	mov    %eax,%r14d
  4012c5:	eb 46                	jmp    40130d <main+0x14e>
  4012c7:	ba 0a 00 00 00       	mov    $0xa,%edx
  4012cc:	be 00 00 00 00       	mov    $0x0,%esi
  4012d1:	48 8b 3d 08 42 20 00 	mov    0x204208(%rip),%rdi        # 6054e0 <optarg@@GLIBC_2.2.5>
  4012d8:	e8 d3 fa ff ff       	callq  400db0 <strtol@plt>
  4012dd:	41 89 c5             	mov    %eax,%r13d
  4012e0:	eb 2b                	jmp    40130d <main+0x14e>
  4012e2:	c7 05 bc 41 20 00 00 	movl   $0x0,0x2041bc(%rip)        # 6054a8 <notify>
  4012e9:	00 00 00 
  4012ec:	eb 1f                	jmp    40130d <main+0x14e>
  4012ee:	0f be d2             	movsbl %dl,%edx
  4012f1:	be 1f 32 40 00       	mov    $0x40321f,%esi
  4012f6:	bf 01 00 00 00       	mov    $0x1,%edi
  4012fb:	b8 00 00 00 00       	mov    $0x0,%eax
  401300:	e8 1b fb ff ff       	callq  400e20 <__printf_chk@plt>
  401305:	48 8b 3b             	mov    (%rbx),%rdi
  401308:	e8 a3 fc ff ff       	callq  400fb0 <usage>
  40130d:	48 89 ea             	mov    %rbp,%rdx
  401310:	48 89 de             	mov    %rbx,%rsi
  401313:	44 89 e7             	mov    %r12d,%edi
  401316:	e8 25 fb ff ff       	callq  400e40 <getopt@plt>
  40131b:	89 c2                	mov    %eax,%edx
  40131d:	3c ff                	cmp    $0xff,%al
  40131f:	0f 85 22 ff ff ff    	jne    401247 <main+0x88>
  401325:	be 01 00 00 00       	mov    $0x1,%esi
  40132a:	44 89 ef             	mov    %r13d,%edi
  40132d:	e8 08 fd ff ff       	callq  40103a <initialize_target>
  401332:	83 3d ef 41 20 00 00 	cmpl   $0x0,0x2041ef(%rip)        # 605528 <is_checker>
  401339:	74 2a                	je     401365 <main+0x1a6>
  40133b:	44 3b 35 de 41 20 00 	cmp    0x2041de(%rip),%r14d        # 605520 <authkey>
  401342:	74 21                	je     401365 <main+0x1a6>
  401344:	44 89 f2             	mov    %r14d,%edx
  401347:	be 58 31 40 00       	mov    $0x403158,%esi
  40134c:	bf 01 00 00 00       	mov    $0x1,%edi
  401351:	b8 00 00 00 00       	mov    $0x0,%eax
  401356:	e8 c5 fa ff ff       	callq  400e20 <__printf_chk@plt>
  40135b:	b8 00 00 00 00       	mov    $0x0,%eax
  401360:	e8 d6 08 00 00       	callq  401c3b <check_fail>
  401365:	8b 15 b9 41 20 00    	mov    0x2041b9(%rip),%edx        # 605524 <cookie>
  40136b:	be 32 32 40 00       	mov    $0x403232,%esi
  401370:	bf 01 00 00 00       	mov    $0x1,%edi
  401375:	b8 00 00 00 00       	mov    $0x0,%eax
  40137a:	e8 a1 fa ff ff       	callq  400e20 <__printf_chk@plt>
  40137f:	48 8b 3d 1a 41 20 00 	mov    0x20411a(%rip),%rdi        # 6054a0 <buf_offset>
  401386:	e8 62 0d 00 00       	callq  4020ed <launch>
  40138b:	b8 00 00 00 00       	mov    $0x0,%eax
  401390:	5b                   	pop    %rbx
  401391:	5d                   	pop    %rbp
  401392:	41 5c                	pop    %r12
  401394:	41 5d                	pop    %r13
  401396:	41 5e                	pop    %r14
  401398:	c3                   	retq   

0000000000401399 <scramble>:
  401399:	b8 00 00 00 00       	mov    $0x0,%eax
  40139e:	eb 11                	jmp    4013b1 <scramble+0x18>
  4013a0:	69 c8 c4 7c 00 00    	imul   $0x7cc4,%eax,%ecx
  4013a6:	01 f9                	add    %edi,%ecx
  4013a8:	89 c2                	mov    %eax,%edx
  4013aa:	89 4c 94 c8          	mov    %ecx,-0x38(%rsp,%rdx,4)
  4013ae:	83 c0 01             	add    $0x1,%eax
  4013b1:	83 f8 09             	cmp    $0x9,%eax
  4013b4:	76 ea                	jbe    4013a0 <scramble+0x7>
  4013b6:	8b 44 24 d4          	mov    -0x2c(%rsp),%eax
  4013ba:	69 c0 77 3e 00 00    	imul   $0x3e77,%eax,%eax
  4013c0:	89 44 24 d4          	mov    %eax,-0x2c(%rsp)
  4013c4:	8b 44 24 cc          	mov    -0x34(%rsp),%eax
  4013c8:	69 c0 02 a5 00 00    	imul   $0xa502,%eax,%eax
  4013ce:	89 44 24 cc          	mov    %eax,-0x34(%rsp)
  4013d2:	8b 44 24 d0          	mov    -0x30(%rsp),%eax
  4013d6:	69 c0 52 ec 00 00    	imul   $0xec52,%eax,%eax
  4013dc:	89 44 24 d0          	mov    %eax,-0x30(%rsp)
  4013e0:	8b 44 24 c8          	mov    -0x38(%rsp),%eax
  4013e4:	69 c0 97 39 00 00    	imul   $0x3997,%eax,%eax
  4013ea:	89 44 24 c8          	mov    %eax,-0x38(%rsp)
  4013ee:	8b 44 24 e8          	mov    -0x18(%rsp),%eax
  4013f2:	69 c0 81 7d 00 00    	imul   $0x7d81,%eax,%eax
  4013f8:	89 44 24 e8          	mov    %eax,-0x18(%rsp)
  4013fc:	8b 44 24 ec          	mov    -0x14(%rsp),%eax
  401400:	01 c0                	add    %eax,%eax
  401402:	89 44 24 ec          	mov    %eax,-0x14(%rsp)
  401406:	8b 44 24 d4          	mov    -0x2c(%rsp),%eax
  40140a:	69 c0 e5 ba 00 00    	imul   $0xbae5,%eax,%eax
  401410:	89 44 24 d4          	mov    %eax,-0x2c(%rsp)
  401414:	8b 44 24 e4          	mov    -0x1c(%rsp),%eax
  401418:	69 c0 9b c2 00 00    	imul   $0xc29b,%eax,%eax
  40141e:	89 44 24 e4          	mov    %eax,-0x1c(%rsp)
  401422:	8b 44 24 e8          	mov    -0x18(%rsp),%eax
  401426:	69 c0 ca 95 00 00    	imul   $0x95ca,%eax,%eax
  40142c:	89 44 24 e8          	mov    %eax,-0x18(%rsp)
  401430:	8b 44 24 d8          	mov    -0x28(%rsp),%eax
  401434:	69 c0 f9 b1 00 00    	imul   $0xb1f9,%eax,%eax
  40143a:	89 44 24 d8          	mov    %eax,-0x28(%rsp)
  40143e:	8b 44 24 cc          	mov    -0x34(%rsp),%eax
  401442:	69 c0 22 b0 00 00    	imul   $0xb022,%eax,%eax
  401448:	89 44 24 cc          	mov    %eax,-0x34(%rsp)
  40144c:	8b 44 24 c8          	mov    -0x38(%rsp),%eax
  401450:	69 c0 db 0d 00 00    	imul   $0xddb,%eax,%eax
  401456:	89 44 24 c8          	mov    %eax,-0x38(%rsp)
  40145a:	8b 44 24 cc          	mov    -0x34(%rsp),%eax
  40145e:	69 c0 09 ce 00 00    	imul   $0xce09,%eax,%eax
  401464:	89 44 24 cc          	mov    %eax,-0x34(%rsp)
  401468:	8b 44 24 c8          	mov    -0x38(%rsp),%eax
  40146c:	69 c0 dc 21 00 00    	imul   $0x21dc,%eax,%eax
  401472:	89 44 24 c8          	mov    %eax,-0x38(%rsp)
  401476:	8b 44 24 ec          	mov    -0x14(%rsp),%eax
  40147a:	69 c0 03 0f 00 00    	imul   $0xf03,%eax,%eax
  401480:	89 44 24 ec          	mov    %eax,-0x14(%rsp)
  401484:	8b 44 24 e8          	mov    -0x18(%rsp),%eax
  401488:	69 c0 be bd 00 00    	imul   $0xbdbe,%eax,%eax
  40148e:	89 44 24 e8          	mov    %eax,-0x18(%rsp)
  401492:	8b 44 24 ec          	mov    -0x14(%rsp),%eax
  401496:	69 c0 48 a9 00 00    	imul   $0xa948,%eax,%eax
  40149c:	89 44 24 ec          	mov    %eax,-0x14(%rsp)
  4014a0:	8b 44 24 dc          	mov    -0x24(%rsp),%eax
  4014a4:	69 c0 49 1a 00 00    	imul   $0x1a49,%eax,%eax
  4014aa:	89 44 24 dc          	mov    %eax,-0x24(%rsp)
  4014ae:	8b 44 24 ec          	mov    -0x14(%rsp),%eax
  4014b2:	69 c0 ab bb 00 00    	imul   $0xbbab,%eax,%eax
  4014b8:	89 44 24 ec          	mov    %eax,-0x14(%rsp)
  4014bc:	8b 44 24 e0          	mov    -0x20(%rsp),%eax
  4014c0:	69 c0 e9 32 00 00    	imul   $0x32e9,%eax,%eax
  4014c6:	89 44 24 e0          	mov    %eax,-0x20(%rsp)
  4014ca:	8b 44 24 ec          	mov    -0x14(%rsp),%eax
  4014ce:	69 c0 e3 b6 00 00    	imul   $0xb6e3,%eax,%eax
  4014d4:	89 44 24 ec          	mov    %eax,-0x14(%rsp)
  4014d8:	8b 44 24 c8          	mov    -0x38(%rsp),%eax
  4014dc:	69 c0 7c db 00 00    	imul   $0xdb7c,%eax,%eax
  4014e2:	89 44 24 c8          	mov    %eax,-0x38(%rsp)
  4014e6:	8b 44 24 dc          	mov    -0x24(%rsp),%eax
  4014ea:	69 c0 05 16 00 00    	imul   $0x1605,%eax,%eax
  4014f0:	89 44 24 dc          	mov    %eax,-0x24(%rsp)
  4014f4:	8b 44 24 ec          	mov    -0x14(%rsp),%eax
  4014f8:	69 c0 27 d3 00 00    	imul   $0xd327,%eax,%eax
  4014fe:	89 44 24 ec          	mov    %eax,-0x14(%rsp)
  401502:	8b 44 24 dc          	mov    -0x24(%rsp),%eax
  401506:	69 c0 67 b3 00 00    	imul   $0xb367,%eax,%eax
  40150c:	89 44 24 dc          	mov    %eax,-0x24(%rsp)
  401510:	8b 44 24 dc          	mov    -0x24(%rsp),%eax
  401514:	69 c0 79 2c 00 00    	imul   $0x2c79,%eax,%eax
  40151a:	89 44 24 dc          	mov    %eax,-0x24(%rsp)
  40151e:	8b 44 24 e0          	mov    -0x20(%rsp),%eax
  401522:	69 c0 da e8 00 00    	imul   $0xe8da,%eax,%eax
  401528:	89 44 24 e0          	mov    %eax,-0x20(%rsp)
  40152c:	8b 44 24 ec          	mov    -0x14(%rsp),%eax
  401530:	69 c0 3b ac 00 00    	imul   $0xac3b,%eax,%eax
  401536:	89 44 24 ec          	mov    %eax,-0x14(%rsp)
  40153a:	8b 44 24 e8          	mov    -0x18(%rsp),%eax
  40153e:	69 c0 fa 2b 00 00    	imul   $0x2bfa,%eax,%eax
  401544:	89 44 24 e8          	mov    %eax,-0x18(%rsp)
  401548:	8b 44 24 d4          	mov    -0x2c(%rsp),%eax
  40154c:	69 c0 dd f7 00 00    	imul   $0xf7dd,%eax,%eax
  401552:	89 44 24 d4          	mov    %eax,-0x2c(%rsp)
  401556:	8b 44 24 e8          	mov    -0x18(%rsp),%eax
  40155a:	69 c0 93 4f 00 00    	imul   $0x4f93,%eax,%eax
  401560:	89 44 24 e8          	mov    %eax,-0x18(%rsp)
  401564:	8b 44 24 c8          	mov    -0x38(%rsp),%eax
  401568:	69 c0 77 88 00 00    	imul   $0x8877,%eax,%eax
  40156e:	89 44 24 c8          	mov    %eax,-0x38(%rsp)
  401572:	8b 44 24 d4          	mov    -0x2c(%rsp),%eax
  401576:	69 c0 5d 18 00 00    	imul   $0x185d,%eax,%eax
  40157c:	89 44 24 d4          	mov    %eax,-0x2c(%rsp)
  401580:	8b 44 24 d8          	mov    -0x28(%rsp),%eax
  401584:	69 c0 77 8e 00 00    	imul   $0x8e77,%eax,%eax
  40158a:	89 44 24 d8          	mov    %eax,-0x28(%rsp)
  40158e:	8b 44 24 d0          	mov    -0x30(%rsp),%eax
  401592:	69 c0 a2 f6 00 00    	imul   $0xf6a2,%eax,%eax
  401598:	89 44 24 d0          	mov    %eax,-0x30(%rsp)
  40159c:	8b 44 24 ec          	mov    -0x14(%rsp),%eax
  4015a0:	69 c0 35 0d 00 00    	imul   $0xd35,%eax,%eax
  4015a6:	89 44 24 ec          	mov    %eax,-0x14(%rsp)
  4015aa:	8b 44 24 ec          	mov    -0x14(%rsp),%eax
  4015ae:	69 c0 4b f4 00 00    	imul   $0xf44b,%eax,%eax
  4015b4:	89 44 24 ec          	mov    %eax,-0x14(%rsp)
  4015b8:	8b 44 24 e0          	mov    -0x20(%rsp),%eax
  4015bc:	69 c0 4e 1f 00 00    	imul   $0x1f4e,%eax,%eax
  4015c2:	89 44 24 e0          	mov    %eax,-0x20(%rsp)
  4015c6:	8b 44 24 ec          	mov    -0x14(%rsp),%eax
  4015ca:	69 c0 c8 86 00 00    	imul   $0x86c8,%eax,%eax
  4015d0:	89 44 24 ec          	mov    %eax,-0x14(%rsp)
  4015d4:	8b 44 24 ec          	mov    -0x14(%rsp),%eax
  4015d8:	69 c0 20 b6 00 00    	imul   $0xb620,%eax,%eax
  4015de:	89 44 24 ec          	mov    %eax,-0x14(%rsp)
  4015e2:	8b 44 24 d4          	mov    -0x2c(%rsp),%eax
  4015e6:	69 c0 96 77 00 00    	imul   $0x7796,%eax,%eax
  4015ec:	89 44 24 d4          	mov    %eax,-0x2c(%rsp)
  4015f0:	8b 44 24 d4          	mov    -0x2c(%rsp),%eax
  4015f4:	69 c0 b8 9d 00 00    	imul   $0x9db8,%eax,%eax
  4015fa:	89 44 24 d4          	mov    %eax,-0x2c(%rsp)
  4015fe:	8b 44 24 d4          	mov    -0x2c(%rsp),%eax
  401602:	69 c0 ee 1c 00 00    	imul   $0x1cee,%eax,%eax
  401608:	89 44 24 d4          	mov    %eax,-0x2c(%rsp)
  40160c:	8b 44 24 d8          	mov    -0x28(%rsp),%eax
  401610:	69 c0 54 17 00 00    	imul   $0x1754,%eax,%eax
  401616:	89 44 24 d8          	mov    %eax,-0x28(%rsp)
  40161a:	8b 44 24 d8          	mov    -0x28(%rsp),%eax
  40161e:	69 c0 0b 18 00 00    	imul   $0x180b,%eax,%eax
  401624:	89 44 24 d8          	mov    %eax,-0x28(%rsp)
  401628:	8b 44 24 ec          	mov    -0x14(%rsp),%eax
  40162c:	69 c0 e5 83 00 00    	imul   $0x83e5,%eax,%eax
  401632:	89 44 24 ec          	mov    %eax,-0x14(%rsp)
  401636:	8b 44 24 c8          	mov    -0x38(%rsp),%eax
  40163a:	69 c0 ce c4 00 00    	imul   $0xc4ce,%eax,%eax
  401640:	89 44 24 c8          	mov    %eax,-0x38(%rsp)
  401644:	8b 44 24 dc          	mov    -0x24(%rsp),%eax
  401648:	69 c0 7b 60 00 00    	imul   $0x607b,%eax,%eax
  40164e:	89 44 24 dc          	mov    %eax,-0x24(%rsp)
  401652:	8b 44 24 e8          	mov    -0x18(%rsp),%eax
  401656:	69 c0 1d af 00 00    	imul   $0xaf1d,%eax,%eax
  40165c:	89 44 24 e8          	mov    %eax,-0x18(%rsp)
  401660:	8b 44 24 e4          	mov    -0x1c(%rsp),%eax
  401664:	69 c0 33 b1 00 00    	imul   $0xb133,%eax,%eax
  40166a:	89 44 24 e4          	mov    %eax,-0x1c(%rsp)
  40166e:	8b 44 24 d0          	mov    -0x30(%rsp),%eax
  401672:	69 c0 52 b0 00 00    	imul   $0xb052,%eax,%eax
  401678:	89 44 24 d0          	mov    %eax,-0x30(%rsp)
  40167c:	8b 44 24 dc          	mov    -0x24(%rsp),%eax
  401680:	69 c0 45 53 00 00    	imul   $0x5345,%eax,%eax
  401686:	89 44 24 dc          	mov    %eax,-0x24(%rsp)
  40168a:	8b 44 24 cc          	mov    -0x34(%rsp),%eax
  40168e:	69 c0 19 a7 00 00    	imul   $0xa719,%eax,%eax
  401694:	89 44 24 cc          	mov    %eax,-0x34(%rsp)
  401698:	8b 44 24 ec          	mov    -0x14(%rsp),%eax
  40169c:	69 c0 ee ae 00 00    	imul   $0xaeee,%eax,%eax
  4016a2:	89 44 24 ec          	mov    %eax,-0x14(%rsp)
  4016a6:	8b 44 24 d0          	mov    -0x30(%rsp),%eax
  4016aa:	69 c0 08 65 00 00    	imul   $0x6508,%eax,%eax
  4016b0:	89 44 24 d0          	mov    %eax,-0x30(%rsp)
  4016b4:	8b 44 24 ec          	mov    -0x14(%rsp),%eax
  4016b8:	69 c0 10 68 00 00    	imul   $0x6810,%eax,%eax
  4016be:	89 44 24 ec          	mov    %eax,-0x14(%rsp)
  4016c2:	8b 44 24 d8          	mov    -0x28(%rsp),%eax
  4016c6:	69 c0 a7 47 00 00    	imul   $0x47a7,%eax,%eax
  4016cc:	89 44 24 d8          	mov    %eax,-0x28(%rsp)
  4016d0:	8b 44 24 ec          	mov    -0x14(%rsp),%eax
  4016d4:	69 c0 10 3d 00 00    	imul   $0x3d10,%eax,%eax
  4016da:	89 44 24 ec          	mov    %eax,-0x14(%rsp)
  4016de:	8b 44 24 d8          	mov    -0x28(%rsp),%eax
  4016e2:	69 c0 bc 4f 00 00    	imul   $0x4fbc,%eax,%eax
  4016e8:	89 44 24 d8          	mov    %eax,-0x28(%rsp)
  4016ec:	8b 44 24 cc          	mov    -0x34(%rsp),%eax
  4016f0:	69 c0 7d ad 00 00    	imul   $0xad7d,%eax,%eax
  4016f6:	89 44 24 cc          	mov    %eax,-0x34(%rsp)
  4016fa:	8b 44 24 d0          	mov    -0x30(%rsp),%eax
  4016fe:	69 c0 96 63 00 00    	imul   $0x6396,%eax,%eax
  401704:	89 44 24 d0          	mov    %eax,-0x30(%rsp)
  401708:	8b 44 24 d8          	mov    -0x28(%rsp),%eax
  40170c:	69 c0 66 cf 00 00    	imul   $0xcf66,%eax,%eax
  401712:	89 44 24 d8          	mov    %eax,-0x28(%rsp)
  401716:	8b 44 24 d4          	mov    -0x2c(%rsp),%eax
  40171a:	69 c0 bf 3d 00 00    	imul   $0x3dbf,%eax,%eax
  401720:	89 44 24 d4          	mov    %eax,-0x2c(%rsp)
  401724:	8b 44 24 c8          	mov    -0x38(%rsp),%eax
  401728:	69 c0 8f 05 00 00    	imul   $0x58f,%eax,%eax
  40172e:	89 44 24 c8          	mov    %eax,-0x38(%rsp)
  401732:	8b 44 24 cc          	mov    -0x34(%rsp),%eax
  401736:	69 c0 d3 1e 00 00    	imul   $0x1ed3,%eax,%eax
  40173c:	89 44 24 cc          	mov    %eax,-0x34(%rsp)
  401740:	8b 44 24 dc          	mov    -0x24(%rsp),%eax
  401744:	69 c0 9c 92 00 00    	imul   $0x929c,%eax,%eax
  40174a:	89 44 24 dc          	mov    %eax,-0x24(%rsp)
  40174e:	8b 44 24 cc          	mov    -0x34(%rsp),%eax
  401752:	69 c0 2b 75 00 00    	imul   $0x752b,%eax,%eax
  401758:	89 44 24 cc          	mov    %eax,-0x34(%rsp)
  40175c:	8b 44 24 ec          	mov    -0x14(%rsp),%eax
  401760:	69 c0 c3 73 00 00    	imul   $0x73c3,%eax,%eax
  401766:	89 44 24 ec          	mov    %eax,-0x14(%rsp)
  40176a:	8b 44 24 dc          	mov    -0x24(%rsp),%eax
  40176e:	69 c0 74 58 00 00    	imul   $0x5874,%eax,%eax
  401774:	89 44 24 dc          	mov    %eax,-0x24(%rsp)
  401778:	8b 44 24 e0          	mov    -0x20(%rsp),%eax
  40177c:	69 c0 26 4a 00 00    	imul   $0x4a26,%eax,%eax
  401782:	89 44 24 e0          	mov    %eax,-0x20(%rsp)
  401786:	8b 44 24 ec          	mov    -0x14(%rsp),%eax
  40178a:	69 c0 bf 87 00 00    	imul   $0x87bf,%eax,%eax
  401790:	89 44 24 ec          	mov    %eax,-0x14(%rsp)
  401794:	8b 44 24 d8          	mov    -0x28(%rsp),%eax
  401798:	69 c0 1b 9a 00 00    	imul   $0x9a1b,%eax,%eax
  40179e:	89 44 24 d8          	mov    %eax,-0x28(%rsp)
  4017a2:	8b 44 24 e4          	mov    -0x1c(%rsp),%eax
  4017a6:	69 c0 ff b7 00 00    	imul   $0xb7ff,%eax,%eax
  4017ac:	89 44 24 e4          	mov    %eax,-0x1c(%rsp)
  4017b0:	8b 44 24 dc          	mov    -0x24(%rsp),%eax
  4017b4:	69 c0 fc 33 00 00    	imul   $0x33fc,%eax,%eax
  4017ba:	89 44 24 dc          	mov    %eax,-0x24(%rsp)
  4017be:	8b 44 24 cc          	mov    -0x34(%rsp),%eax
  4017c2:	69 c0 90 2b 00 00    	imul   $0x2b90,%eax,%eax
  4017c8:	89 44 24 cc          	mov    %eax,-0x34(%rsp)
  4017cc:	8b 44 24 d8          	mov    -0x28(%rsp),%eax
  4017d0:	69 c0 83 6f 00 00    	imul   $0x6f83,%eax,%eax
  4017d6:	89 44 24 d8          	mov    %eax,-0x28(%rsp)
  4017da:	8b 44 24 cc          	mov    -0x34(%rsp),%eax
  4017de:	69 c0 dc 12 00 00    	imul   $0x12dc,%eax,%eax
  4017e4:	89 44 24 cc          	mov    %eax,-0x34(%rsp)
  4017e8:	8b 44 24 d4          	mov    -0x2c(%rsp),%eax
  4017ec:	69 c0 8b b7 00 00    	imul   $0xb78b,%eax,%eax
  4017f2:	89 44 24 d4          	mov    %eax,-0x2c(%rsp)
  4017f6:	8b 44 24 d0          	mov    -0x30(%rsp),%eax
  4017fa:	69 c0 cb 6e 00 00    	imul   $0x6ecb,%eax,%eax
  401800:	89 44 24 d0          	mov    %eax,-0x30(%rsp)
  401804:	8b 44 24 c8          	mov    -0x38(%rsp),%eax
  401808:	69 c0 77 3d 00 00    	imul   $0x3d77,%eax,%eax
  40180e:	89 44 24 c8          	mov    %eax,-0x38(%rsp)
  401812:	8b 44 24 dc          	mov    -0x24(%rsp),%eax
  401816:	69 c0 dd 73 00 00    	imul   $0x73dd,%eax,%eax
  40181c:	89 44 24 dc          	mov    %eax,-0x24(%rsp)
  401820:	8b 44 24 cc          	mov    -0x34(%rsp),%eax
  401824:	69 c0 c4 5c 00 00    	imul   $0x5cc4,%eax,%eax
  40182a:	89 44 24 cc          	mov    %eax,-0x34(%rsp)
  40182e:	8b 44 24 ec          	mov    -0x14(%rsp),%eax
  401832:	69 c0 f4 b5 00 00    	imul   $0xb5f4,%eax,%eax
  401838:	89 44 24 ec          	mov    %eax,-0x14(%rsp)
  40183c:	8b 44 24 c8          	mov    -0x38(%rsp),%eax
  401840:	69 c0 4e 05 00 00    	imul   $0x54e,%eax,%eax
  401846:	89 44 24 c8          	mov    %eax,-0x38(%rsp)
  40184a:	8b 44 24 d0          	mov    -0x30(%rsp),%eax
  40184e:	69 c0 38 f3 00 00    	imul   $0xf338,%eax,%eax
  401854:	89 44 24 d0          	mov    %eax,-0x30(%rsp)
  401858:	8b 44 24 d4          	mov    -0x2c(%rsp),%eax
  40185c:	69 c0 e5 cb 00 00    	imul   $0xcbe5,%eax,%eax
  401862:	89 44 24 d4          	mov    %eax,-0x2c(%rsp)
  401866:	8b 44 24 d0          	mov    -0x30(%rsp),%eax
  40186a:	69 c0 ab 01 00 00    	imul   $0x1ab,%eax,%eax
  401870:	89 44 24 d0          	mov    %eax,-0x30(%rsp)
  401874:	8b 44 24 ec          	mov    -0x14(%rsp),%eax
  401878:	69 c0 5d 4a 00 00    	imul   $0x4a5d,%eax,%eax
  40187e:	89 44 24 ec          	mov    %eax,-0x14(%rsp)
  401882:	8b 44 24 dc          	mov    -0x24(%rsp),%eax
  401886:	69 c0 2c 3d 00 00    	imul   $0x3d2c,%eax,%eax
  40188c:	89 44 24 dc          	mov    %eax,-0x24(%rsp)
  401890:	8b 44 24 e0          	mov    -0x20(%rsp),%eax
  401894:	69 c0 66 c1 00 00    	imul   $0xc166,%eax,%eax
  40189a:	89 44 24 e0          	mov    %eax,-0x20(%rsp)
  40189e:	ba 00 00 00 00       	mov    $0x0,%edx
  4018a3:	b8 00 00 00 00       	mov    $0x0,%eax
  4018a8:	eb 0b                	jmp    4018b5 <scramble+0x51c>
  4018aa:	89 d1                	mov    %edx,%ecx
  4018ac:	8b 4c 8c c8          	mov    -0x38(%rsp,%rcx,4),%ecx
  4018b0:	01 c8                	add    %ecx,%eax
  4018b2:	83 c2 01             	add    $0x1,%edx
  4018b5:	83 fa 09             	cmp    $0x9,%edx
  4018b8:	76 f0                	jbe    4018aa <scramble+0x511>
  4018ba:	f3 c3                	repz retq 

00000000004018bc <getbuf>:
  4018bc:	48 83 ec 18          	sub    $0x18,%rsp
  4018c0:	48 89 e7             	mov    %rsp,%rdi
  4018c3:	e8 a8 03 00 00       	callq  401c70 <Gets>
  4018c8:	b8 01 00 00 00       	mov    $0x1,%eax
  4018cd:	48 83 c4 18          	add    $0x18,%rsp
  4018d1:	c3                   	retq   

00000000004018d2 <touch1>:
  4018d2:	48 83 ec 08          	sub    $0x8,%rsp
  4018d6:	c7 05 3c 3c 20 00 01 	movl   $0x1,0x203c3c(%rip)        # 60551c <vlevel>
  4018dd:	00 00 00 
  4018e0:	bf 25 33 40 00       	mov    $0x403325,%edi
  4018e5:	e8 f6 f3 ff ff       	callq  400ce0 <puts@plt>
  4018ea:	bf 01 00 00 00       	mov    $0x1,%edi
  4018ef:	e8 d2 05 00 00       	callq  401ec6 <validate>
  4018f4:	bf 00 00 00 00       	mov    $0x0,%edi
  4018f9:	e8 72 f5 ff ff       	callq  400e70 <exit@plt>

00000000004018fe <touch2>:
  4018fe:	48 83 ec 08          	sub    $0x8,%rsp
  401902:	89 fa                	mov    %edi,%edx
  401904:	c7 05 0e 3c 20 00 02 	movl   $0x2,0x203c0e(%rip)        # 60551c <vlevel>
  40190b:	00 00 00 
  40190e:	3b 3d 10 3c 20 00    	cmp    0x203c10(%rip),%edi        # 605524 <cookie>
  401914:	75 20                	jne    401936 <touch2+0x38>
  401916:	be 48 33 40 00       	mov    $0x403348,%esi
  40191b:	bf 01 00 00 00       	mov    $0x1,%edi
  401920:	b8 00 00 00 00       	mov    $0x0,%eax
  401925:	e8 f6 f4 ff ff       	callq  400e20 <__printf_chk@plt>
  40192a:	bf 02 00 00 00       	mov    $0x2,%edi
  40192f:	e8 92 05 00 00       	callq  401ec6 <validate>
  401934:	eb 1e                	jmp    401954 <touch2+0x56>
  401936:	be 70 33 40 00       	mov    $0x403370,%esi
  40193b:	bf 01 00 00 00       	mov    $0x1,%edi
  401940:	b8 00 00 00 00       	mov    $0x0,%eax
  401945:	e8 d6 f4 ff ff       	callq  400e20 <__printf_chk@plt>
  40194a:	bf 02 00 00 00       	mov    $0x2,%edi
  40194f:	e8 34 06 00 00       	callq  401f88 <fail>
  401954:	bf 00 00 00 00       	mov    $0x0,%edi
  401959:	e8 12 f5 ff ff       	callq  400e70 <exit@plt>

000000000040195e <hexmatch>:
  40195e:	41 54                	push   %r12
  401960:	55                   	push   %rbp
  401961:	53                   	push   %rbx
  401962:	48 83 c4 80          	add    $0xffffffffffffff80,%rsp
  401966:	41 89 fc             	mov    %edi,%r12d
  401969:	48 89 f5             	mov    %rsi,%rbp
  40196c:	64 48 8b 04 25 28 00 	mov    %fs:0x28,%rax
  401973:	00 00 
  401975:	48 89 44 24 78       	mov    %rax,0x78(%rsp)
  40197a:	31 c0                	xor    %eax,%eax
  40197c:	e8 5f f4 ff ff       	callq  400de0 <random@plt>
  401981:	48 89 c1             	mov    %rax,%rcx
  401984:	48 ba 0b d7 a3 70 3d 	movabs $0xa3d70a3d70a3d70b,%rdx
  40198b:	0a d7 a3 
  40198e:	48 f7 ea             	imul   %rdx
  401991:	48 01 ca             	add    %rcx,%rdx
  401994:	48 c1 fa 06          	sar    $0x6,%rdx
  401998:	48 89 c8             	mov    %rcx,%rax
  40199b:	48 c1 f8 3f          	sar    $0x3f,%rax
  40199f:	48 29 c2             	sub    %rax,%rdx
  4019a2:	48 8d 04 92          	lea    (%rdx,%rdx,4),%rax
  4019a6:	48 8d 04 80          	lea    (%rax,%rax,4),%rax
  4019aa:	48 c1 e0 02          	shl    $0x2,%rax
  4019ae:	48 29 c1             	sub    %rax,%rcx
  4019b1:	48 8d 1c 0c          	lea    (%rsp,%rcx,1),%rbx
  4019b5:	45 89 e0             	mov    %r12d,%r8d
  4019b8:	b9 42 33 40 00       	mov    $0x403342,%ecx
  4019bd:	48 c7 c2 ff ff ff ff 	mov    $0xffffffffffffffff,%rdx
  4019c4:	be 01 00 00 00       	mov    $0x1,%esi
  4019c9:	48 89 df             	mov    %rbx,%rdi
  4019cc:	b8 00 00 00 00       	mov    $0x0,%eax
  4019d1:	e8 ca f4 ff ff       	callq  400ea0 <__sprintf_chk@plt>
  4019d6:	ba 09 00 00 00       	mov    $0x9,%edx
  4019db:	48 89 de             	mov    %rbx,%rsi
  4019de:	48 89 ef             	mov    %rbp,%rdi
  4019e1:	e8 da f2 ff ff       	callq  400cc0 <strncmp@plt>
  4019e6:	85 c0                	test   %eax,%eax
  4019e8:	0f 94 c0             	sete   %al
  4019eb:	0f b6 c0             	movzbl %al,%eax
  4019ee:	48 8b 74 24 78       	mov    0x78(%rsp),%rsi
  4019f3:	64 48 33 34 25 28 00 	xor    %fs:0x28,%rsi
  4019fa:	00 00 
  4019fc:	74 05                	je     401a03 <hexmatch+0xa5>
  4019fe:	e8 fd f2 ff ff       	callq  400d00 <__stack_chk_fail@plt>
  401a03:	48 83 ec 80          	sub    $0xffffffffffffff80,%rsp
  401a07:	5b                   	pop    %rbx
  401a08:	5d                   	pop    %rbp
  401a09:	41 5c                	pop    %r12
  401a0b:	c3                   	retq   

0000000000401a0c <touch3>:
  401a0c:	53                   	push   %rbx
  401a0d:	48 89 fb             	mov    %rdi,%rbx
  401a10:	c7 05 02 3b 20 00 03 	movl   $0x3,0x203b02(%rip)        # 60551c <vlevel>
  401a17:	00 00 00 
  401a1a:	48 89 fe             	mov    %rdi,%rsi
  401a1d:	8b 3d 01 3b 20 00    	mov    0x203b01(%rip),%edi        # 605524 <cookie>
  401a23:	e8 36 ff ff ff       	callq  40195e <hexmatch>
  401a28:	85 c0                	test   %eax,%eax
  401a2a:	74 23                	je     401a4f <touch3+0x43>
  401a2c:	48 89 da             	mov    %rbx,%rdx
  401a2f:	be 98 33 40 00       	mov    $0x403398,%esi
  401a34:	bf 01 00 00 00       	mov    $0x1,%edi
  401a39:	b8 00 00 00 00       	mov    $0x0,%eax
  401a3e:	e8 dd f3 ff ff       	callq  400e20 <__printf_chk@plt>
  401a43:	bf 03 00 00 00       	mov    $0x3,%edi
  401a48:	e8 79 04 00 00       	callq  401ec6 <validate>
  401a4d:	eb 21                	jmp    401a70 <touch3+0x64>
  401a4f:	48 89 da             	mov    %rbx,%rdx
  401a52:	be c0 33 40 00       	mov    $0x4033c0,%esi
  401a57:	bf 01 00 00 00       	mov    $0x1,%edi
  401a5c:	b8 00 00 00 00       	mov    $0x0,%eax
  401a61:	e8 ba f3 ff ff       	callq  400e20 <__printf_chk@plt>
  401a66:	bf 03 00 00 00       	mov    $0x3,%edi
  401a6b:	e8 18 05 00 00       	callq  401f88 <fail>
  401a70:	bf 00 00 00 00       	mov    $0x0,%edi
  401a75:	e8 f6 f3 ff ff       	callq  400e70 <exit@plt>

0000000000401a7a <test>:
  401a7a:	48 83 ec 08          	sub    $0x8,%rsp
  401a7e:	b8 00 00 00 00       	mov    $0x0,%eax
  401a83:	e8 34 fe ff ff       	callq  4018bc <getbuf>
  401a88:	89 c2                	mov    %eax,%edx
  401a8a:	be e8 33 40 00       	mov    $0x4033e8,%esi
  401a8f:	bf 01 00 00 00       	mov    $0x1,%edi
  401a94:	b8 00 00 00 00       	mov    $0x0,%eax
  401a99:	e8 82 f3 ff ff       	callq  400e20 <__printf_chk@plt>
  401a9e:	48 83 c4 08          	add    $0x8,%rsp
  401aa2:	c3                   	retq   

0000000000401aa3 <start_farm>:
  401aa3:	b8 01 00 00 00       	mov    $0x1,%eax
  401aa8:	c3                   	retq   

0000000000401aa9 <getval_396>:
  401aa9:	b8 58 90 90 c3       	mov    $0xc3909058,%eax
  401aae:	c3                   	retq   

0000000000401aaf <setval_352>:
  401aaf:	c7 07 e6 58 90 c3    	movl   $0xc39058e6,(%rdi)
  401ab5:	c3                   	retq   

0000000000401ab6 <setval_186>:
  401ab6:	c7 07 58 94 90 90    	movl   $0x90909458,(%rdi)
  401abc:	c3                   	retq   

0000000000401abd <getval_165>:
  401abd:	b8 08 89 c7 90       	mov    $0x90c78908,%eax
  401ac2:	c3                   	retq   

0000000000401ac3 <getval_322>:
  401ac3:	b8 48 89 c7 c3       	mov    $0xc3c78948,%eax
  401ac8:	c3                   	retq   

0000000000401ac9 <getval_133>:
  401ac9:	b8 4a 44 18 90       	mov    $0x9018444a,%eax
  401ace:	c3                   	retq   

0000000000401acf <addval_421>:
  401acf:	8d 87 48 89 c7 91    	lea    -0x6e3876b8(%rdi),%eax
  401ad5:	c3                   	retq   

0000000000401ad6 <setval_262>:
  401ad6:	c7 07 dc 48 89 c7    	movl   $0xc78948dc,(%rdi)
  401adc:	c3                   	retq   

0000000000401add <mid_farm>:
  401add:	b8 01 00 00 00       	mov    $0x1,%eax
  401ae2:	c3                   	retq   

0000000000401ae3 <add_xy>:
  401ae3:	48 8d 04 37          	lea    (%rdi,%rsi,1),%rax
  401ae7:	c3                   	retq   

0000000000401ae8 <setval_206>:
  401ae8:	c7 07 89 ce 30 d2    	movl   $0xd230ce89,(%rdi)
  401aee:	c3                   	retq   

0000000000401aef <addval_428>:
  401aef:	8d 87 99 d1 90 c3    	lea    -0x3c6f2e67(%rdi),%eax
  401af5:	c3                   	retq   

0000000000401af6 <addval_240>:
  401af6:	8d 87 89 c2 00 c0    	lea    -0x3fff3d77(%rdi),%eax
  401afc:	c3                   	retq   

0000000000401afd <getval_114>:
  401afd:	b8 c9 ce 90 90       	mov    $0x9090cec9,%eax
  401b02:	c3                   	retq   

0000000000401b03 <setval_141>:
  401b03:	c7 07 89 c2 18 c0    	movl   $0xc018c289,(%rdi)
  401b09:	c3                   	retq   

0000000000401b0a <setval_388>:
  401b0a:	c7 07 89 d1 38 d2    	movl   $0xd238d189,(%rdi)
  401b10:	c3                   	retq   

0000000000401b11 <getval_260>:
  401b11:	b8 89 ce 18 c0       	mov    $0xc018ce89,%eax
  401b16:	c3                   	retq   

0000000000401b17 <getval_370>:
  401b17:	b8 7d 4a 81 c2       	mov    $0xc2814a7d,%eax
  401b1c:	c3                   	retq   

0000000000401b1d <addval_128>:
  401b1d:	8d 87 58 89 e0 c3    	lea    -0x3c1f76a8(%rdi),%eax
  401b23:	c3                   	retq   

0000000000401b24 <setval_271>:
  401b24:	c7 07 5e 48 89 e0    	movl   $0xe089485e,(%rdi)
  401b2a:	c3                   	retq   

0000000000401b2b <setval_313>:
  401b2b:	c7 07 89 c2 c3 dd    	movl   $0xddc3c289,(%rdi)
  401b31:	c3                   	retq   

0000000000401b32 <getval_415>:
  401b32:	b8 99 c2 38 db       	mov    $0xdb38c299,%eax
  401b37:	c3                   	retq   

0000000000401b38 <setval_394>:
  401b38:	c7 07 48 89 e0 c7    	movl   $0xc7e08948,(%rdi)
  401b3e:	c3                   	retq   

0000000000401b3f <setval_375>:
  401b3f:	c7 07 a9 c2 20 d2    	movl   $0xd220c2a9,(%rdi)
  401b45:	c3                   	retq   

0000000000401b46 <setval_371>:
  401b46:	c7 07 99 d1 84 db    	movl   $0xdb84d199,(%rdi)
  401b4c:	c3                   	retq   

0000000000401b4d <getval_113>:
  401b4d:	b8 63 48 89 e0       	mov    $0xe0894863,%eax
  401b52:	c3                   	retq   

0000000000401b53 <setval_363>:
  401b53:	c7 07 48 89 e0 c7    	movl   $0xc7e08948,(%rdi)
  401b59:	c3                   	retq   

0000000000401b5a <getval_211>:
  401b5a:	b8 89 d1 20 d2       	mov    $0xd220d189,%eax
  401b5f:	c3                   	retq   

0000000000401b60 <setval_104>:
  401b60:	c7 07 e1 09 d1 90    	movl   $0x90d109e1,(%rdi)
  401b66:	c3                   	retq   

0000000000401b67 <getval_202>:
  401b67:	b8 97 99 ce 90       	mov    $0x90ce9997,%eax
  401b6c:	c3                   	retq   

0000000000401b6d <setval_460>:
  401b6d:	c7 07 a0 89 c2 c3    	movl   $0xc3c289a0,(%rdi)
  401b73:	c3                   	retq   

0000000000401b74 <setval_235>:
  401b74:	c7 07 48 89 e0 91    	movl   $0x91e08948,(%rdi)
  401b7a:	c3                   	retq   

0000000000401b7b <addval_474>:
  401b7b:	8d 87 48 89 e0 c1    	lea    -0x3e1f76b8(%rdi),%eax
  401b81:	c3                   	retq   

0000000000401b82 <getval_431>:
  401b82:	b8 81 ce 90 c3       	mov    $0xc390ce81,%eax
  401b87:	c3                   	retq   

0000000000401b88 <addval_480>:
  401b88:	8d 87 89 d1 90 c2    	lea    -0x3d6f2e77(%rdi),%eax
  401b8e:	c3                   	retq   

0000000000401b8f <setval_245>:
  401b8f:	c7 07 89 ce 20 d2    	movl   $0xd220ce89,(%rdi)
  401b95:	c3                   	retq   

0000000000401b96 <addval_337>:
  401b96:	8d 87 4c 89 e0 c3    	lea    -0x3c1f76b4(%rdi),%eax
  401b9c:	c3                   	retq   

0000000000401b9d <getval_295>:
  401b9d:	b8 5a 80 99 d1       	mov    $0xd199805a,%eax
  401ba2:	c3                   	retq   

0000000000401ba3 <addval_427>:
  401ba3:	8d 87 a9 ce 38 c9    	lea    -0x36c73157(%rdi),%eax
  401ba9:	c3                   	retq   

0000000000401baa <getval_369>:
  401baa:	b8 c9 c2 20 c0       	mov    $0xc020c2c9,%eax
  401baf:	c3                   	retq   

0000000000401bb0 <addval_452>:
  401bb0:	8d 87 89 ce 84 d2    	lea    -0x2d7b3177(%rdi),%eax
  401bb6:	c3                   	retq   

0000000000401bb7 <setval_475>:
  401bb7:	c7 07 89 d1 78 db    	movl   $0xdb78d189,(%rdi)
  401bbd:	c3                   	retq   

0000000000401bbe <end_farm>:
  401bbe:	b8 01 00 00 00       	mov    $0x1,%eax
  401bc3:	c3                   	retq   
  401bc4:	66 2e 0f 1f 84 00 00 	nopw   %cs:0x0(%rax,%rax,1)
  401bcb:	00 00 00 
  401bce:	66 90                	xchg   %ax,%ax

0000000000401bd0 <save_char>:
  401bd0:	8b 05 6e 45 20 00    	mov    0x20456e(%rip),%eax        # 606144 <gets_cnt>
  401bd6:	3d ff 03 00 00       	cmp    $0x3ff,%eax
  401bdb:	7f 49                	jg     401c26 <save_char+0x56>
  401bdd:	8d 14 40             	lea    (%rax,%rax,2),%edx
  401be0:	89 f9                	mov    %edi,%ecx
  401be2:	c0 e9 04             	shr    $0x4,%cl
  401be5:	83 e1 0f             	and    $0xf,%ecx
  401be8:	0f b6 b1 10 37 40 00 	movzbl 0x403710(%rcx),%esi
  401bef:	48 63 ca             	movslq %edx,%rcx
  401bf2:	40 88 b1 40 55 60 00 	mov    %sil,0x605540(%rcx)
  401bf9:	8d 4a 01             	lea    0x1(%rdx),%ecx
  401bfc:	83 e7 0f             	and    $0xf,%edi
  401bff:	0f b6 b7 10 37 40 00 	movzbl 0x403710(%rdi),%esi
  401c06:	48 63 c9             	movslq %ecx,%rcx
  401c09:	40 88 b1 40 55 60 00 	mov    %sil,0x605540(%rcx)
  401c10:	83 c2 02             	add    $0x2,%edx
  401c13:	48 63 d2             	movslq %edx,%rdx
  401c16:	c6 82 40 55 60 00 20 	movb   $0x20,0x605540(%rdx)
  401c1d:	83 c0 01             	add    $0x1,%eax
  401c20:	89 05 1e 45 20 00    	mov    %eax,0x20451e(%rip)        # 606144 <gets_cnt>
  401c26:	f3 c3                	repz retq 

0000000000401c28 <save_term>:
  401c28:	8b 05 16 45 20 00    	mov    0x204516(%rip),%eax        # 606144 <gets_cnt>
  401c2e:	8d 04 40             	lea    (%rax,%rax,2),%eax
  401c31:	48 98                	cltq   
  401c33:	c6 80 40 55 60 00 00 	movb   $0x0,0x605540(%rax)
  401c3a:	c3                   	retq   

0000000000401c3b <check_fail>:
  401c3b:	48 83 ec 08          	sub    $0x8,%rsp
  401c3f:	0f be 15 02 45 20 00 	movsbl 0x204502(%rip),%edx        # 606148 <target_prefix>
  401c46:	41 b8 40 55 60 00    	mov    $0x605540,%r8d
  401c4c:	8b 0d c6 38 20 00    	mov    0x2038c6(%rip),%ecx        # 605518 <check_level>
  401c52:	be 0b 34 40 00       	mov    $0x40340b,%esi
  401c57:	bf 01 00 00 00       	mov    $0x1,%edi
  401c5c:	b8 00 00 00 00       	mov    $0x0,%eax
  401c61:	e8 ba f1 ff ff       	callq  400e20 <__printf_chk@plt>
  401c66:	bf 01 00 00 00       	mov    $0x1,%edi
  401c6b:	e8 00 f2 ff ff       	callq  400e70 <exit@plt>

0000000000401c70 <Gets>:
  401c70:	41 54                	push   %r12
  401c72:	55                   	push   %rbp
  401c73:	53                   	push   %rbx
  401c74:	49 89 fc             	mov    %rdi,%r12
  401c77:	c7 05 c3 44 20 00 00 	movl   $0x0,0x2044c3(%rip)        # 606144 <gets_cnt>
  401c7e:	00 00 00 
  401c81:	48 89 fb             	mov    %rdi,%rbx
  401c84:	eb 11                	jmp    401c97 <Gets+0x27>
  401c86:	48 8d 6b 01          	lea    0x1(%rbx),%rbp
  401c8a:	88 03                	mov    %al,(%rbx)
  401c8c:	0f b6 f8             	movzbl %al,%edi
  401c8f:	e8 3c ff ff ff       	callq  401bd0 <save_char>
  401c94:	48 89 eb             	mov    %rbp,%rbx
  401c97:	48 8b 3d 72 38 20 00 	mov    0x203872(%rip),%rdi        # 605510 <infile>
  401c9e:	e8 4d f1 ff ff       	callq  400df0 <_IO_getc@plt>
  401ca3:	83 f8 ff             	cmp    $0xffffffff,%eax
  401ca6:	74 05                	je     401cad <Gets+0x3d>
  401ca8:	83 f8 0a             	cmp    $0xa,%eax
  401cab:	75 d9                	jne    401c86 <Gets+0x16>
  401cad:	c6 03 00             	movb   $0x0,(%rbx)
  401cb0:	b8 00 00 00 00       	mov    $0x0,%eax
  401cb5:	e8 6e ff ff ff       	callq  401c28 <save_term>
  401cba:	4c 89 e0             	mov    %r12,%rax
  401cbd:	5b                   	pop    %rbx
  401cbe:	5d                   	pop    %rbp
  401cbf:	41 5c                	pop    %r12
  401cc1:	c3                   	retq   

0000000000401cc2 <notify_server>:
  401cc2:	53                   	push   %rbx
  401cc3:	48 81 ec 30 40 00 00 	sub    $0x4030,%rsp
  401cca:	64 48 8b 04 25 28 00 	mov    %fs:0x28,%rax
  401cd1:	00 00 
  401cd3:	48 89 84 24 28 40 00 	mov    %rax,0x4028(%rsp)
  401cda:	00 
  401cdb:	31 c0                	xor    %eax,%eax
  401cdd:	83 3d 44 38 20 00 00 	cmpl   $0x0,0x203844(%rip)        # 605528 <is_checker>
  401ce4:	0f 85 bb 01 00 00    	jne    401ea5 <notify_server+0x1e3>
  401cea:	89 fb                	mov    %edi,%ebx
  401cec:	8b 05 52 44 20 00    	mov    0x204452(%rip),%eax        # 606144 <gets_cnt>
  401cf2:	83 c0 64             	add    $0x64,%eax
  401cf5:	3d 00 20 00 00       	cmp    $0x2000,%eax
  401cfa:	7e 1e                	jle    401d1a <notify_server+0x58>
  401cfc:	be 40 35 40 00       	mov    $0x403540,%esi
  401d01:	bf 01 00 00 00       	mov    $0x1,%edi
  401d06:	b8 00 00 00 00       	mov    $0x0,%eax
  401d0b:	e8 10 f1 ff ff       	callq  400e20 <__printf_chk@plt>
  401d10:	bf 01 00 00 00       	mov    $0x1,%edi
  401d15:	e8 56 f1 ff ff       	callq  400e70 <exit@plt>
  401d1a:	0f be 05 27 44 20 00 	movsbl 0x204427(%rip),%eax        # 606148 <target_prefix>
  401d21:	83 3d 80 37 20 00 00 	cmpl   $0x0,0x203780(%rip)        # 6054a8 <notify>
  401d28:	74 08                	je     401d32 <notify_server+0x70>
  401d2a:	8b 15 f0 37 20 00    	mov    0x2037f0(%rip),%edx        # 605520 <authkey>
  401d30:	eb 05                	jmp    401d37 <notify_server+0x75>
  401d32:	ba ff ff ff ff       	mov    $0xffffffff,%edx
  401d37:	85 db                	test   %ebx,%ebx
  401d39:	74 08                	je     401d43 <notify_server+0x81>
  401d3b:	41 b9 21 34 40 00    	mov    $0x403421,%r9d
  401d41:	eb 06                	jmp    401d49 <notify_server+0x87>
  401d43:	41 b9 26 34 40 00    	mov    $0x403426,%r9d
  401d49:	48 c7 44 24 18 40 55 	movq   $0x605540,0x18(%rsp)
  401d50:	60 00 
  401d52:	89 74 24 10          	mov    %esi,0x10(%rsp)
  401d56:	89 44 24 08          	mov    %eax,0x8(%rsp)
  401d5a:	89 14 24             	mov    %edx,(%rsp)
  401d5d:	44 8b 05 04 34 20 00 	mov    0x203404(%rip),%r8d        # 605168 <target_id>
  401d64:	b9 2b 34 40 00       	mov    $0x40342b,%ecx
  401d69:	ba 00 20 00 00       	mov    $0x2000,%edx
  401d6e:	be 01 00 00 00       	mov    $0x1,%esi
  401d73:	48 8d 7c 24 20       	lea    0x20(%rsp),%rdi
  401d78:	b8 00 00 00 00       	mov    $0x0,%eax
  401d7d:	e8 1e f1 ff ff       	callq  400ea0 <__sprintf_chk@plt>
  401d82:	83 3d 1f 37 20 00 00 	cmpl   $0x0,0x20371f(%rip)        # 6054a8 <notify>
  401d89:	0f 84 86 00 00 00    	je     401e15 <notify_server+0x153>
  401d8f:	85 db                	test   %ebx,%ebx
  401d91:	74 70                	je     401e03 <notify_server+0x141>
  401d93:	4c 8d 8c 24 20 20 00 	lea    0x2020(%rsp),%r9
  401d9a:	00 
  401d9b:	41 b8 00 00 00 00    	mov    $0x0,%r8d
  401da1:	48 8d 4c 24 20       	lea    0x20(%rsp),%rcx
  401da6:	48 8b 15 c3 33 20 00 	mov    0x2033c3(%rip),%rdx        # 605170 <lab>
  401dad:	48 8b 35 c4 33 20 00 	mov    0x2033c4(%rip),%rsi        # 605178 <course>
  401db4:	48 8b 3d a5 33 20 00 	mov    0x2033a5(%rip),%rdi        # 605160 <user_id>
  401dbb:	e8 be 10 00 00       	callq  402e7e <driver_post>
  401dc0:	85 c0                	test   %eax,%eax
  401dc2:	79 26                	jns    401dea <notify_server+0x128>
  401dc4:	48 8d 94 24 20 20 00 	lea    0x2020(%rsp),%rdx
  401dcb:	00 
  401dcc:	be 47 34 40 00       	mov    $0x403447,%esi
  401dd1:	bf 01 00 00 00       	mov    $0x1,%edi
  401dd6:	b8 00 00 00 00       	mov    $0x0,%eax
  401ddb:	e8 40 f0 ff ff       	callq  400e20 <__printf_chk@plt>
  401de0:	bf 01 00 00 00       	mov    $0x1,%edi
  401de5:	e8 86 f0 ff ff       	callq  400e70 <exit@plt>
  401dea:	bf 70 35 40 00       	mov    $0x403570,%edi
  401def:	e8 ec ee ff ff       	callq  400ce0 <puts@plt>
  401df4:	bf 53 34 40 00       	mov    $0x403453,%edi
  401df9:	e8 e2 ee ff ff       	callq  400ce0 <puts@plt>
  401dfe:	e9 a2 00 00 00       	jmpq   401ea5 <notify_server+0x1e3>
  401e03:	bf 5d 34 40 00       	mov    $0x40345d,%edi
  401e08:	e8 d3 ee ff ff       	callq  400ce0 <puts@plt>
  401e0d:	0f 1f 00             	nopl   (%rax)
  401e10:	e9 90 00 00 00       	jmpq   401ea5 <notify_server+0x1e3>
  401e15:	85 db                	test   %ebx,%ebx
  401e17:	74 09                	je     401e22 <notify_server+0x160>
  401e19:	ba 21 34 40 00       	mov    $0x403421,%edx
  401e1e:	66 90                	xchg   %ax,%ax
  401e20:	eb 05                	jmp    401e27 <notify_server+0x165>
  401e22:	ba 26 34 40 00       	mov    $0x403426,%edx
  401e27:	be a8 35 40 00       	mov    $0x4035a8,%esi
  401e2c:	bf 01 00 00 00       	mov    $0x1,%edi
  401e31:	b8 00 00 00 00       	mov    $0x0,%eax
  401e36:	e8 e5 ef ff ff       	callq  400e20 <__printf_chk@plt>
  401e3b:	48 8b 15 1e 33 20 00 	mov    0x20331e(%rip),%rdx        # 605160 <user_id>
  401e42:	be 64 34 40 00       	mov    $0x403464,%esi
  401e47:	bf 01 00 00 00       	mov    $0x1,%edi
  401e4c:	b8 00 00 00 00       	mov    $0x0,%eax
  401e51:	e8 ca ef ff ff       	callq  400e20 <__printf_chk@plt>
  401e56:	48 8b 15 1b 33 20 00 	mov    0x20331b(%rip),%rdx        # 605178 <course>
  401e5d:	be 71 34 40 00       	mov    $0x403471,%esi
  401e62:	bf 01 00 00 00       	mov    $0x1,%edi
  401e67:	b8 00 00 00 00       	mov    $0x0,%eax
  401e6c:	e8 af ef ff ff       	callq  400e20 <__printf_chk@plt>
  401e71:	48 8b 15 f8 32 20 00 	mov    0x2032f8(%rip),%rdx        # 605170 <lab>
  401e78:	be 7d 34 40 00       	mov    $0x40347d,%esi
  401e7d:	bf 01 00 00 00       	mov    $0x1,%edi
  401e82:	b8 00 00 00 00       	mov    $0x0,%eax
  401e87:	e8 94 ef ff ff       	callq  400e20 <__printf_chk@plt>
  401e8c:	48 8d 54 24 20       	lea    0x20(%rsp),%rdx
  401e91:	be 86 34 40 00       	mov    $0x403486,%esi
  401e96:	bf 01 00 00 00       	mov    $0x1,%edi
  401e9b:	b8 00 00 00 00       	mov    $0x0,%eax
  401ea0:	e8 7b ef ff ff       	callq  400e20 <__printf_chk@plt>
  401ea5:	48 8b 84 24 28 40 00 	mov    0x4028(%rsp),%rax
  401eac:	00 
  401ead:	64 48 33 04 25 28 00 	xor    %fs:0x28,%rax
  401eb4:	00 00 
  401eb6:	74 05                	je     401ebd <notify_server+0x1fb>
  401eb8:	e8 43 ee ff ff       	callq  400d00 <__stack_chk_fail@plt>
  401ebd:	48 81 c4 30 40 00 00 	add    $0x4030,%rsp
  401ec4:	5b                   	pop    %rbx
  401ec5:	c3                   	retq   

0000000000401ec6 <validate>:
  401ec6:	53                   	push   %rbx
  401ec7:	89 fb                	mov    %edi,%ebx
  401ec9:	83 3d 58 36 20 00 00 	cmpl   $0x0,0x203658(%rip)        # 605528 <is_checker>
  401ed0:	74 6b                	je     401f3d <validate+0x77>
  401ed2:	39 3d 44 36 20 00    	cmp    %edi,0x203644(%rip)        # 60551c <vlevel>
  401ed8:	74 14                	je     401eee <validate+0x28>
  401eda:	bf 92 34 40 00       	mov    $0x403492,%edi
  401edf:	e8 fc ed ff ff       	callq  400ce0 <puts@plt>
  401ee4:	b8 00 00 00 00       	mov    $0x0,%eax
  401ee9:	e8 4d fd ff ff       	callq  401c3b <check_fail>
  401eee:	8b 15 24 36 20 00    	mov    0x203624(%rip),%edx        # 605518 <check_level>
  401ef4:	39 fa                	cmp    %edi,%edx
  401ef6:	74 20                	je     401f18 <validate+0x52>
  401ef8:	89 f9                	mov    %edi,%ecx
  401efa:	be d0 35 40 00       	mov    $0x4035d0,%esi
  401eff:	bf 01 00 00 00       	mov    $0x1,%edi
  401f04:	b8 00 00 00 00       	mov    $0x0,%eax
  401f09:	e8 12 ef ff ff       	callq  400e20 <__printf_chk@plt>
  401f0e:	b8 00 00 00 00       	mov    $0x0,%eax
  401f13:	e8 23 fd ff ff       	callq  401c3b <check_fail>
  401f18:	0f be 15 29 42 20 00 	movsbl 0x204229(%rip),%edx        # 606148 <target_prefix>
  401f1f:	41 b8 40 55 60 00    	mov    $0x605540,%r8d
  401f25:	89 f9                	mov    %edi,%ecx
  401f27:	be b0 34 40 00       	mov    $0x4034b0,%esi
  401f2c:	bf 01 00 00 00       	mov    $0x1,%edi
  401f31:	b8 00 00 00 00       	mov    $0x0,%eax
  401f36:	e8 e5 ee ff ff       	callq  400e20 <__printf_chk@plt>
  401f3b:	eb 49                	jmp    401f86 <validate+0xc0>
  401f3d:	39 3d d9 35 20 00    	cmp    %edi,0x2035d9(%rip)        # 60551c <vlevel>
  401f43:	74 18                	je     401f5d <validate+0x97>
  401f45:	bf 92 34 40 00       	mov    $0x403492,%edi
  401f4a:	e8 91 ed ff ff       	callq  400ce0 <puts@plt>
  401f4f:	89 de                	mov    %ebx,%esi
  401f51:	bf 00 00 00 00       	mov    $0x0,%edi
  401f56:	e8 67 fd ff ff       	callq  401cc2 <notify_server>
  401f5b:	eb 29                	jmp    401f86 <validate+0xc0>
  401f5d:	0f be 0d e4 41 20 00 	movsbl 0x2041e4(%rip),%ecx        # 606148 <target_prefix>
  401f64:	89 fa                	mov    %edi,%edx
  401f66:	be f8 35 40 00       	mov    $0x4035f8,%esi
  401f6b:	bf 01 00 00 00       	mov    $0x1,%edi
  401f70:	b8 00 00 00 00       	mov    $0x0,%eax
  401f75:	e8 a6 ee ff ff       	callq  400e20 <__printf_chk@plt>
  401f7a:	89 de                	mov    %ebx,%esi
  401f7c:	bf 01 00 00 00       	mov    $0x1,%edi
  401f81:	e8 3c fd ff ff       	callq  401cc2 <notify_server>
  401f86:	5b                   	pop    %rbx
  401f87:	c3                   	retq   

0000000000401f88 <fail>:
  401f88:	48 83 ec 08          	sub    $0x8,%rsp
  401f8c:	83 3d 95 35 20 00 00 	cmpl   $0x0,0x203595(%rip)        # 605528 <is_checker>
  401f93:	74 0a                	je     401f9f <fail+0x17>
  401f95:	b8 00 00 00 00       	mov    $0x0,%eax
  401f9a:	e8 9c fc ff ff       	callq  401c3b <check_fail>
  401f9f:	89 fe                	mov    %edi,%esi
  401fa1:	bf 00 00 00 00       	mov    $0x0,%edi
  401fa6:	e8 17 fd ff ff       	callq  401cc2 <notify_server>
  401fab:	48 83 c4 08          	add    $0x8,%rsp
  401faf:	c3                   	retq   

0000000000401fb0 <bushandler>:
  401fb0:	48 83 ec 08          	sub    $0x8,%rsp
  401fb4:	83 3d 6d 35 20 00 00 	cmpl   $0x0,0x20356d(%rip)        # 605528 <is_checker>
  401fbb:	74 14                	je     401fd1 <bushandler+0x21>
  401fbd:	bf c5 34 40 00       	mov    $0x4034c5,%edi
  401fc2:	e8 19 ed ff ff       	callq  400ce0 <puts@plt>
  401fc7:	b8 00 00 00 00       	mov    $0x0,%eax
  401fcc:	e8 6a fc ff ff       	callq  401c3b <check_fail>
  401fd1:	bf 30 36 40 00       	mov    $0x403630,%edi
  401fd6:	e8 05 ed ff ff       	callq  400ce0 <puts@plt>
  401fdb:	bf cf 34 40 00       	mov    $0x4034cf,%edi
  401fe0:	e8 fb ec ff ff       	callq  400ce0 <puts@plt>
  401fe5:	be 00 00 00 00       	mov    $0x0,%esi
  401fea:	bf 00 00 00 00       	mov    $0x0,%edi
  401fef:	e8 ce fc ff ff       	callq  401cc2 <notify_server>
  401ff4:	bf 01 00 00 00       	mov    $0x1,%edi
  401ff9:	e8 72 ee ff ff       	callq  400e70 <exit@plt>

0000000000401ffe <seghandler>:
  401ffe:	48 83 ec 08          	sub    $0x8,%rsp
  402002:	83 3d 1f 35 20 00 00 	cmpl   $0x0,0x20351f(%rip)        # 605528 <is_checker>
  402009:	74 14                	je     40201f <seghandler+0x21>
  40200b:	bf e5 34 40 00       	mov    $0x4034e5,%edi
  402010:	e8 cb ec ff ff       	callq  400ce0 <puts@plt>
  402015:	b8 00 00 00 00       	mov    $0x0,%eax
  40201a:	e8 1c fc ff ff       	callq  401c3b <check_fail>
  40201f:	bf 50 36 40 00       	mov    $0x403650,%edi
  402024:	e8 b7 ec ff ff       	callq  400ce0 <puts@plt>
  402029:	bf cf 34 40 00       	mov    $0x4034cf,%edi
  40202e:	e8 ad ec ff ff       	callq  400ce0 <puts@plt>
  402033:	be 00 00 00 00       	mov    $0x0,%esi
  402038:	bf 00 00 00 00       	mov    $0x0,%edi
  40203d:	e8 80 fc ff ff       	callq  401cc2 <notify_server>
  402042:	bf 01 00 00 00       	mov    $0x1,%edi
  402047:	e8 24 ee ff ff       	callq  400e70 <exit@plt>

000000000040204c <illegalhandler>:
  40204c:	48 83 ec 08          	sub    $0x8,%rsp
  402050:	83 3d d1 34 20 00 00 	cmpl   $0x0,0x2034d1(%rip)        # 605528 <is_checker>
  402057:	74 14                	je     40206d <illegalhandler+0x21>
  402059:	bf f8 34 40 00       	mov    $0x4034f8,%edi
  40205e:	e8 7d ec ff ff       	callq  400ce0 <puts@plt>
  402063:	b8 00 00 00 00       	mov    $0x0,%eax
  402068:	e8 ce fb ff ff       	callq  401c3b <check_fail>
  40206d:	bf 78 36 40 00       	mov    $0x403678,%edi
  402072:	e8 69 ec ff ff       	callq  400ce0 <puts@plt>
  402077:	bf cf 34 40 00       	mov    $0x4034cf,%edi
  40207c:	e8 5f ec ff ff       	callq  400ce0 <puts@plt>
  402081:	be 00 00 00 00       	mov    $0x0,%esi
  402086:	bf 00 00 00 00       	mov    $0x0,%edi
  40208b:	e8 32 fc ff ff       	callq  401cc2 <notify_server>
  402090:	bf 01 00 00 00       	mov    $0x1,%edi
  402095:	e8 d6 ed ff ff       	callq  400e70 <exit@plt>

000000000040209a <sigalrmhandler>:
  40209a:	48 83 ec 08          	sub    $0x8,%rsp
  40209e:	83 3d 83 34 20 00 00 	cmpl   $0x0,0x203483(%rip)        # 605528 <is_checker>
  4020a5:	74 14                	je     4020bb <sigalrmhandler+0x21>
  4020a7:	bf 0c 35 40 00       	mov    $0x40350c,%edi
  4020ac:	e8 2f ec ff ff       	callq  400ce0 <puts@plt>
  4020b1:	b8 00 00 00 00       	mov    $0x0,%eax
  4020b6:	e8 80 fb ff ff       	callq  401c3b <check_fail>
  4020bb:	ba 05 00 00 00       	mov    $0x5,%edx
  4020c0:	be a8 36 40 00       	mov    $0x4036a8,%esi
  4020c5:	bf 01 00 00 00       	mov    $0x1,%edi
  4020ca:	b8 00 00 00 00       	mov    $0x0,%eax
  4020cf:	e8 4c ed ff ff       	callq  400e20 <__printf_chk@plt>
  4020d4:	be 00 00 00 00       	mov    $0x0,%esi
  4020d9:	bf 00 00 00 00       	mov    $0x0,%edi
  4020de:	e8 df fb ff ff       	callq  401cc2 <notify_server>
  4020e3:	bf 01 00 00 00       	mov    $0x1,%edi
  4020e8:	e8 83 ed ff ff       	callq  400e70 <exit@plt>

00000000004020ed <launch>:
  4020ed:	55                   	push   %rbp
  4020ee:	48 89 e5             	mov    %rsp,%rbp
  4020f1:	48 83 ec 10          	sub    $0x10,%rsp
  4020f5:	48 89 fa             	mov    %rdi,%rdx
  4020f8:	64 48 8b 04 25 28 00 	mov    %fs:0x28,%rax
  4020ff:	00 00 
  402101:	48 89 45 f8          	mov    %rax,-0x8(%rbp)
  402105:	31 c0                	xor    %eax,%eax
  402107:	48 8d 47 1e          	lea    0x1e(%rdi),%rax
  40210b:	48 83 e0 f0          	and    $0xfffffffffffffff0,%rax
  40210f:	48 29 c4             	sub    %rax,%rsp
  402112:	48 8d 7c 24 0f       	lea    0xf(%rsp),%rdi
  402117:	48 83 e7 f0          	and    $0xfffffffffffffff0,%rdi
  40211b:	be f4 00 00 00       	mov    $0xf4,%esi
  402120:	e8 fb eb ff ff       	callq  400d20 <memset@plt>
  402125:	48 8b 05 94 33 20 00 	mov    0x203394(%rip),%rax        # 6054c0 <stdin@@GLIBC_2.2.5>
  40212c:	48 39 05 dd 33 20 00 	cmp    %rax,0x2033dd(%rip)        # 605510 <infile>
  402133:	75 14                	jne    402149 <launch+0x5c>
  402135:	be 14 35 40 00       	mov    $0x403514,%esi
  40213a:	bf 01 00 00 00       	mov    $0x1,%edi
  40213f:	b8 00 00 00 00       	mov    $0x0,%eax
  402144:	e8 d7 ec ff ff       	callq  400e20 <__printf_chk@plt>
  402149:	c7 05 c9 33 20 00 00 	movl   $0x0,0x2033c9(%rip)        # 60551c <vlevel>
  402150:	00 00 00 
  402153:	b8 00 00 00 00       	mov    $0x0,%eax
  402158:	e8 1d f9 ff ff       	callq  401a7a <test>
  40215d:	83 3d c4 33 20 00 00 	cmpl   $0x0,0x2033c4(%rip)        # 605528 <is_checker>
  402164:	74 14                	je     40217a <launch+0x8d>
  402166:	bf 21 35 40 00       	mov    $0x403521,%edi
  40216b:	e8 70 eb ff ff       	callq  400ce0 <puts@plt>
  402170:	b8 00 00 00 00       	mov    $0x0,%eax
  402175:	e8 c1 fa ff ff       	callq  401c3b <check_fail>
  40217a:	bf 2c 35 40 00       	mov    $0x40352c,%edi
  40217f:	e8 5c eb ff ff       	callq  400ce0 <puts@plt>
  402184:	48 8b 45 f8          	mov    -0x8(%rbp),%rax
  402188:	64 48 33 04 25 28 00 	xor    %fs:0x28,%rax
  40218f:	00 00 
  402191:	74 05                	je     402198 <launch+0xab>
  402193:	e8 68 eb ff ff       	callq  400d00 <__stack_chk_fail@plt>
  402198:	c9                   	leaveq 
  402199:	c3                   	retq   

000000000040219a <stable_launch>:
  40219a:	53                   	push   %rbx
  40219b:	48 89 3d 66 33 20 00 	mov    %rdi,0x203366(%rip)        # 605508 <global_offset>
  4021a2:	41 b9 00 00 00 00    	mov    $0x0,%r9d
  4021a8:	41 b8 00 00 00 00    	mov    $0x0,%r8d
  4021ae:	b9 32 01 00 00       	mov    $0x132,%ecx
  4021b3:	ba 07 00 00 00       	mov    $0x7,%edx
  4021b8:	be 00 00 10 00       	mov    $0x100000,%esi
  4021bd:	bf 00 60 58 55       	mov    $0x55586000,%edi
  4021c2:	e8 49 eb ff ff       	callq  400d10 <mmap@plt>
  4021c7:	48 89 c3             	mov    %rax,%rbx
  4021ca:	48 3d 00 60 58 55    	cmp    $0x55586000,%rax
  4021d0:	74 37                	je     402209 <stable_launch+0x6f>
  4021d2:	be 00 00 10 00       	mov    $0x100000,%esi
  4021d7:	48 89 c7             	mov    %rax,%rdi
  4021da:	e8 31 ec ff ff       	callq  400e10 <munmap@plt>
  4021df:	b9 00 60 58 55       	mov    $0x55586000,%ecx
  4021e4:	ba e0 36 40 00       	mov    $0x4036e0,%edx
  4021e9:	be 01 00 00 00       	mov    $0x1,%esi
  4021ee:	48 8b 3d f3 32 20 00 	mov    0x2032f3(%rip),%rdi        # 6054e8 <stderr@@GLIBC_2.2.5>
  4021f5:	b8 00 00 00 00       	mov    $0x0,%eax
  4021fa:	e8 91 ec ff ff       	callq  400e90 <__fprintf_chk@plt>
  4021ff:	bf 01 00 00 00       	mov    $0x1,%edi
  402204:	e8 67 ec ff ff       	callq  400e70 <exit@plt>
  402209:	48 8d 90 f8 ff 0f 00 	lea    0xffff8(%rax),%rdx
  402210:	48 89 15 39 3f 20 00 	mov    %rdx,0x203f39(%rip)        # 606150 <stack_top>
  402217:	48 89 e0             	mov    %rsp,%rax
  40221a:	48 89 d4             	mov    %rdx,%rsp
  40221d:	48 89 c2             	mov    %rax,%rdx
  402220:	48 89 15 d9 32 20 00 	mov    %rdx,0x2032d9(%rip)        # 605500 <global_save_stack>
  402227:	48 8b 3d da 32 20 00 	mov    0x2032da(%rip),%rdi        # 605508 <global_offset>
  40222e:	e8 ba fe ff ff       	callq  4020ed <launch>
  402233:	48 8b 05 c6 32 20 00 	mov    0x2032c6(%rip),%rax        # 605500 <global_save_stack>
  40223a:	48 89 c4             	mov    %rax,%rsp
  40223d:	be 00 00 10 00       	mov    $0x100000,%esi
  402242:	48 89 df             	mov    %rbx,%rdi
  402245:	e8 c6 eb ff ff       	callq  400e10 <munmap@plt>
  40224a:	5b                   	pop    %rbx
  40224b:	c3                   	retq   
  40224c:	0f 1f 40 00          	nopl   0x0(%rax)

0000000000402250 <rio_readinitb>:
  402250:	89 37                	mov    %esi,(%rdi)
  402252:	c7 47 04 00 00 00 00 	movl   $0x0,0x4(%rdi)
  402259:	48 8d 47 10          	lea    0x10(%rdi),%rax
  40225d:	48 89 47 08          	mov    %rax,0x8(%rdi)
  402261:	c3                   	retq   

0000000000402262 <sigalrm_handler>:
  402262:	48 83 ec 08          	sub    $0x8,%rsp
  402266:	b9 00 00 00 00       	mov    $0x0,%ecx
  40226b:	ba 20 37 40 00       	mov    $0x403720,%edx
  402270:	be 01 00 00 00       	mov    $0x1,%esi
  402275:	48 8b 3d 6c 32 20 00 	mov    0x20326c(%rip),%rdi        # 6054e8 <stderr@@GLIBC_2.2.5>
  40227c:	b8 00 00 00 00       	mov    $0x0,%eax
  402281:	e8 0a ec ff ff       	callq  400e90 <__fprintf_chk@plt>
  402286:	bf 01 00 00 00       	mov    $0x1,%edi
  40228b:	e8 e0 eb ff ff       	callq  400e70 <exit@plt>

0000000000402290 <rio_writen>:
  402290:	41 55                	push   %r13
  402292:	41 54                	push   %r12
  402294:	55                   	push   %rbp
  402295:	53                   	push   %rbx
  402296:	48 83 ec 08          	sub    $0x8,%rsp
  40229a:	41 89 fc             	mov    %edi,%r12d
  40229d:	48 89 f5             	mov    %rsi,%rbp
  4022a0:	49 89 d5             	mov    %rdx,%r13
  4022a3:	48 89 d3             	mov    %rdx,%rbx
  4022a6:	eb 28                	jmp    4022d0 <rio_writen+0x40>
  4022a8:	48 89 da             	mov    %rbx,%rdx
  4022ab:	48 89 ee             	mov    %rbp,%rsi
  4022ae:	44 89 e7             	mov    %r12d,%edi
  4022b1:	e8 3a ea ff ff       	callq  400cf0 <write@plt>
  4022b6:	48 85 c0             	test   %rax,%rax
  4022b9:	7f 0f                	jg     4022ca <rio_writen+0x3a>
  4022bb:	e8 e0 e9 ff ff       	callq  400ca0 <__errno_location@plt>
  4022c0:	83 38 04             	cmpl   $0x4,(%rax)
  4022c3:	75 15                	jne    4022da <rio_writen+0x4a>
  4022c5:	b8 00 00 00 00       	mov    $0x0,%eax
  4022ca:	48 29 c3             	sub    %rax,%rbx
  4022cd:	48 01 c5             	add    %rax,%rbp
  4022d0:	48 85 db             	test   %rbx,%rbx
  4022d3:	75 d3                	jne    4022a8 <rio_writen+0x18>
  4022d5:	4c 89 e8             	mov    %r13,%rax
  4022d8:	eb 07                	jmp    4022e1 <rio_writen+0x51>
  4022da:	48 c7 c0 ff ff ff ff 	mov    $0xffffffffffffffff,%rax
  4022e1:	48 83 c4 08          	add    $0x8,%rsp
  4022e5:	5b                   	pop    %rbx
  4022e6:	5d                   	pop    %rbp
  4022e7:	41 5c                	pop    %r12
  4022e9:	41 5d                	pop    %r13
  4022eb:	c3                   	retq   

00000000004022ec <rio_read>:
  4022ec:	41 56                	push   %r14
  4022ee:	41 55                	push   %r13
  4022f0:	41 54                	push   %r12
  4022f2:	55                   	push   %rbp
  4022f3:	53                   	push   %rbx
  4022f4:	48 89 fb             	mov    %rdi,%rbx
  4022f7:	49 89 f6             	mov    %rsi,%r14
  4022fa:	49 89 d5             	mov    %rdx,%r13
  4022fd:	4c 8d 67 10          	lea    0x10(%rdi),%r12
  402301:	eb 2a                	jmp    40232d <rio_read+0x41>
  402303:	8b 3b                	mov    (%rbx),%edi
  402305:	ba 00 20 00 00       	mov    $0x2000,%edx
  40230a:	4c 89 e6             	mov    %r12,%rsi
  40230d:	e8 3e ea ff ff       	callq  400d50 <read@plt>
  402312:	89 43 04             	mov    %eax,0x4(%rbx)
  402315:	85 c0                	test   %eax,%eax
  402317:	79 0c                	jns    402325 <rio_read+0x39>
  402319:	e8 82 e9 ff ff       	callq  400ca0 <__errno_location@plt>
  40231e:	83 38 04             	cmpl   $0x4,(%rax)
  402321:	74 0a                	je     40232d <rio_read+0x41>
  402323:	eb 37                	jmp    40235c <rio_read+0x70>
  402325:	85 c0                	test   %eax,%eax
  402327:	74 3c                	je     402365 <rio_read+0x79>
  402329:	4c 89 63 08          	mov    %r12,0x8(%rbx)
  40232d:	8b 6b 04             	mov    0x4(%rbx),%ebp
  402330:	85 ed                	test   %ebp,%ebp
  402332:	7e cf                	jle    402303 <rio_read+0x17>
  402334:	89 e8                	mov    %ebp,%eax
  402336:	4c 39 e8             	cmp    %r13,%rax
  402339:	72 03                	jb     40233e <rio_read+0x52>
  40233b:	44 89 ed             	mov    %r13d,%ebp
  40233e:	4c 63 e5             	movslq %ebp,%r12
  402341:	48 8b 73 08          	mov    0x8(%rbx),%rsi
  402345:	4c 89 e2             	mov    %r12,%rdx
  402348:	4c 89 f7             	mov    %r14,%rdi
  40234b:	e8 70 ea ff ff       	callq  400dc0 <memcpy@plt>
  402350:	4c 01 63 08          	add    %r12,0x8(%rbx)
  402354:	29 6b 04             	sub    %ebp,0x4(%rbx)
  402357:	4c 89 e0             	mov    %r12,%rax
  40235a:	eb 0e                	jmp    40236a <rio_read+0x7e>
  40235c:	48 c7 c0 ff ff ff ff 	mov    $0xffffffffffffffff,%rax
  402363:	eb 05                	jmp    40236a <rio_read+0x7e>
  402365:	b8 00 00 00 00       	mov    $0x0,%eax
  40236a:	5b                   	pop    %rbx
  40236b:	5d                   	pop    %rbp
  40236c:	41 5c                	pop    %r12
  40236e:	41 5d                	pop    %r13
  402370:	41 5e                	pop    %r14
  402372:	c3                   	retq   

0000000000402373 <rio_readlineb>:
  402373:	41 55                	push   %r13
  402375:	41 54                	push   %r12
  402377:	55                   	push   %rbp
  402378:	53                   	push   %rbx
  402379:	48 83 ec 18          	sub    $0x18,%rsp
  40237d:	49 89 fd             	mov    %rdi,%r13
  402380:	48 89 f5             	mov    %rsi,%rbp
  402383:	49 89 d4             	mov    %rdx,%r12
  402386:	bb 01 00 00 00       	mov    $0x1,%ebx
  40238b:	eb 3e                	jmp    4023cb <rio_readlineb+0x58>
  40238d:	ba 01 00 00 00       	mov    $0x1,%edx
  402392:	48 8d 74 24 0f       	lea    0xf(%rsp),%rsi
  402397:	4c 89 ef             	mov    %r13,%rdi
  40239a:	e8 4d ff ff ff       	callq  4022ec <rio_read>
  40239f:	83 f8 01             	cmp    $0x1,%eax
  4023a2:	75 12                	jne    4023b6 <rio_readlineb+0x43>
  4023a4:	48 8d 55 01          	lea    0x1(%rbp),%rdx
  4023a8:	0f b6 44 24 0f       	movzbl 0xf(%rsp),%eax
  4023ad:	88 45 00             	mov    %al,0x0(%rbp)
  4023b0:	3c 0a                	cmp    $0xa,%al
  4023b2:	75 10                	jne    4023c4 <rio_readlineb+0x51>
  4023b4:	eb 1c                	jmp    4023d2 <rio_readlineb+0x5f>
  4023b6:	85 c0                	test   %eax,%eax
  4023b8:	75 24                	jne    4023de <rio_readlineb+0x6b>
  4023ba:	48 83 fb 01          	cmp    $0x1,%rbx
  4023be:	66 90                	xchg   %ax,%ax
  4023c0:	75 13                	jne    4023d5 <rio_readlineb+0x62>
  4023c2:	eb 23                	jmp    4023e7 <rio_readlineb+0x74>
  4023c4:	48 83 c3 01          	add    $0x1,%rbx
  4023c8:	48 89 d5             	mov    %rdx,%rbp
  4023cb:	4c 39 e3             	cmp    %r12,%rbx
  4023ce:	72 bd                	jb     40238d <rio_readlineb+0x1a>
  4023d0:	eb 03                	jmp    4023d5 <rio_readlineb+0x62>
  4023d2:	48 89 d5             	mov    %rdx,%rbp
  4023d5:	c6 45 00 00          	movb   $0x0,0x0(%rbp)
  4023d9:	48 89 d8             	mov    %rbx,%rax
  4023dc:	eb 0e                	jmp    4023ec <rio_readlineb+0x79>
  4023de:	48 c7 c0 ff ff ff ff 	mov    $0xffffffffffffffff,%rax
  4023e5:	eb 05                	jmp    4023ec <rio_readlineb+0x79>
  4023e7:	b8 00 00 00 00       	mov    $0x0,%eax
  4023ec:	48 83 c4 18          	add    $0x18,%rsp
  4023f0:	5b                   	pop    %rbx
  4023f1:	5d                   	pop    %rbp
  4023f2:	41 5c                	pop    %r12
  4023f4:	41 5d                	pop    %r13
  4023f6:	c3                   	retq   

00000000004023f7 <urlencode>:
  4023f7:	41 54                	push   %r12
  4023f9:	55                   	push   %rbp
  4023fa:	53                   	push   %rbx
  4023fb:	48 83 ec 10          	sub    $0x10,%rsp
  4023ff:	48 89 fb             	mov    %rdi,%rbx
  402402:	48 89 f5             	mov    %rsi,%rbp
  402405:	64 48 8b 04 25 28 00 	mov    %fs:0x28,%rax
  40240c:	00 00 
  40240e:	48 89 44 24 08       	mov    %rax,0x8(%rsp)
  402413:	31 c0                	xor    %eax,%eax
  402415:	48 c7 c1 ff ff ff ff 	mov    $0xffffffffffffffff,%rcx
  40241c:	f2 ae                	repnz scas %es:(%rdi),%al
  40241e:	48 f7 d1             	not    %rcx
  402421:	8d 41 ff             	lea    -0x1(%rcx),%eax
  402424:	e9 aa 00 00 00       	jmpq   4024d3 <urlencode+0xdc>
  402429:	44 0f b6 03          	movzbl (%rbx),%r8d
  40242d:	41 80 f8 2a          	cmp    $0x2a,%r8b
  402431:	0f 94 c2             	sete   %dl
  402434:	41 80 f8 2d          	cmp    $0x2d,%r8b
  402438:	0f 94 c0             	sete   %al
  40243b:	08 c2                	or     %al,%dl
  40243d:	75 24                	jne    402463 <urlencode+0x6c>
  40243f:	41 80 f8 2e          	cmp    $0x2e,%r8b
  402443:	74 1e                	je     402463 <urlencode+0x6c>
  402445:	41 80 f8 5f          	cmp    $0x5f,%r8b
  402449:	74 18                	je     402463 <urlencode+0x6c>
  40244b:	41 8d 40 d0          	lea    -0x30(%r8),%eax
  40244f:	3c 09                	cmp    $0x9,%al
  402451:	76 10                	jbe    402463 <urlencode+0x6c>
  402453:	41 8d 40 bf          	lea    -0x41(%r8),%eax
  402457:	3c 19                	cmp    $0x19,%al
  402459:	76 08                	jbe    402463 <urlencode+0x6c>
  40245b:	41 8d 40 9f          	lea    -0x61(%r8),%eax
  40245f:	3c 19                	cmp    $0x19,%al
  402461:	77 0a                	ja     40246d <urlencode+0x76>
  402463:	44 88 45 00          	mov    %r8b,0x0(%rbp)
  402467:	48 8d 6d 01          	lea    0x1(%rbp),%rbp
  40246b:	eb 5f                	jmp    4024cc <urlencode+0xd5>
  40246d:	41 80 f8 20          	cmp    $0x20,%r8b
  402471:	75 0a                	jne    40247d <urlencode+0x86>
  402473:	c6 45 00 2b          	movb   $0x2b,0x0(%rbp)
  402477:	48 8d 6d 01          	lea    0x1(%rbp),%rbp
  40247b:	eb 4f                	jmp    4024cc <urlencode+0xd5>
  40247d:	41 8d 40 e0          	lea    -0x20(%r8),%eax
  402481:	3c 5f                	cmp    $0x5f,%al
  402483:	0f 96 c2             	setbe  %dl
  402486:	41 80 f8 09          	cmp    $0x9,%r8b
  40248a:	0f 94 c0             	sete   %al
  40248d:	08 c2                	or     %al,%dl
  40248f:	74 50                	je     4024e1 <urlencode+0xea>
  402491:	45 0f b6 c0          	movzbl %r8b,%r8d
  402495:	b9 b8 37 40 00       	mov    $0x4037b8,%ecx
  40249a:	ba 08 00 00 00       	mov    $0x8,%edx
  40249f:	be 01 00 00 00       	mov    $0x1,%esi
  4024a4:	48 89 e7             	mov    %rsp,%rdi
  4024a7:	b8 00 00 00 00       	mov    $0x0,%eax
  4024ac:	e8 ef e9 ff ff       	callq  400ea0 <__sprintf_chk@plt>
  4024b1:	0f b6 04 24          	movzbl (%rsp),%eax
  4024b5:	88 45 00             	mov    %al,0x0(%rbp)
  4024b8:	0f b6 44 24 01       	movzbl 0x1(%rsp),%eax
  4024bd:	88 45 01             	mov    %al,0x1(%rbp)
  4024c0:	0f b6 44 24 02       	movzbl 0x2(%rsp),%eax
  4024c5:	88 45 02             	mov    %al,0x2(%rbp)
  4024c8:	48 8d 6d 03          	lea    0x3(%rbp),%rbp
  4024cc:	48 83 c3 01          	add    $0x1,%rbx
  4024d0:	44 89 e0             	mov    %r12d,%eax
  4024d3:	44 8d 60 ff          	lea    -0x1(%rax),%r12d
  4024d7:	85 c0                	test   %eax,%eax
  4024d9:	0f 85 4a ff ff ff    	jne    402429 <urlencode+0x32>
  4024df:	eb 05                	jmp    4024e6 <urlencode+0xef>
  4024e1:	b8 ff ff ff ff       	mov    $0xffffffff,%eax
  4024e6:	48 8b 74 24 08       	mov    0x8(%rsp),%rsi
  4024eb:	64 48 33 34 25 28 00 	xor    %fs:0x28,%rsi
  4024f2:	00 00 
  4024f4:	74 05                	je     4024fb <urlencode+0x104>
  4024f6:	e8 05 e8 ff ff       	callq  400d00 <__stack_chk_fail@plt>
  4024fb:	48 83 c4 10          	add    $0x10,%rsp
  4024ff:	5b                   	pop    %rbx
  402500:	5d                   	pop    %rbp
  402501:	41 5c                	pop    %r12
  402503:	c3                   	retq   

0000000000402504 <submitr>:
  402504:	41 57                	push   %r15
  402506:	41 56                	push   %r14
  402508:	41 55                	push   %r13
  40250a:	41 54                	push   %r12
  40250c:	55                   	push   %rbp
  40250d:	53                   	push   %rbx
  40250e:	48 81 ec 68 a0 00 00 	sub    $0xa068,%rsp
  402515:	49 89 fc             	mov    %rdi,%r12
  402518:	89 74 24 14          	mov    %esi,0x14(%rsp)
  40251c:	49 89 d7             	mov    %rdx,%r15
  40251f:	49 89 ce             	mov    %rcx,%r14
  402522:	4c 89 44 24 18       	mov    %r8,0x18(%rsp)
  402527:	4d 89 cd             	mov    %r9,%r13
  40252a:	48 8b 9c 24 a0 a0 00 	mov    0xa0a0(%rsp),%rbx
  402531:	00 
  402532:	64 48 8b 04 25 28 00 	mov    %fs:0x28,%rax
  402539:	00 00 
  40253b:	48 89 84 24 58 a0 00 	mov    %rax,0xa058(%rsp)
  402542:	00 
  402543:	31 c0                	xor    %eax,%eax
  402545:	c7 44 24 2c 00 00 00 	movl   $0x0,0x2c(%rsp)
  40254c:	00 
  40254d:	ba 00 00 00 00       	mov    $0x0,%edx
  402552:	be 01 00 00 00       	mov    $0x1,%esi
  402557:	bf 02 00 00 00       	mov    $0x2,%edi
  40255c:	e8 4f e9 ff ff       	callq  400eb0 <socket@plt>
  402561:	89 c5                	mov    %eax,%ebp
  402563:	85 c0                	test   %eax,%eax
  402565:	79 4e                	jns    4025b5 <submitr+0xb1>
  402567:	48 b8 45 72 72 6f 72 	movabs $0x43203a726f727245,%rax
  40256e:	3a 20 43 
  402571:	48 89 03             	mov    %rax,(%rbx)
  402574:	48 b8 6c 69 65 6e 74 	movabs $0x6e7520746e65696c,%rax
  40257b:	20 75 6e 
  40257e:	48 89 43 08          	mov    %rax,0x8(%rbx)
  402582:	48 b8 61 62 6c 65 20 	movabs $0x206f7420656c6261,%rax
  402589:	74 6f 20 
  40258c:	48 89 43 10          	mov    %rax,0x10(%rbx)
  402590:	48 b8 63 72 65 61 74 	movabs $0x7320657461657263,%rax
  402597:	65 20 73 
  40259a:	48 89 43 18          	mov    %rax,0x18(%rbx)
  40259e:	c7 43 20 6f 63 6b 65 	movl   $0x656b636f,0x20(%rbx)
  4025a5:	66 c7 43 24 74 00    	movw   $0x74,0x24(%rbx)
  4025ab:	b8 ff ff ff ff       	mov    $0xffffffff,%eax
  4025b0:	e9 84 06 00 00       	jmpq   402c39 <submitr+0x735>
  4025b5:	4c 89 e7             	mov    %r12,%rdi
  4025b8:	e8 c3 e7 ff ff       	callq  400d80 <gethostbyname@plt>
  4025bd:	48 85 c0             	test   %rax,%rax
  4025c0:	75 67                	jne    402629 <submitr+0x125>
  4025c2:	48 b8 45 72 72 6f 72 	movabs $0x44203a726f727245,%rax
  4025c9:	3a 20 44 
  4025cc:	48 89 03             	mov    %rax,(%rbx)
  4025cf:	48 b8 4e 53 20 69 73 	movabs $0x6e7520736920534e,%rax
  4025d6:	20 75 6e 
  4025d9:	48 89 43 08          	mov    %rax,0x8(%rbx)
  4025dd:	48 b8 61 62 6c 65 20 	movabs $0x206f7420656c6261,%rax
  4025e4:	74 6f 20 
  4025e7:	48 89 43 10          	mov    %rax,0x10(%rbx)
  4025eb:	48 b8 72 65 73 6f 6c 	movabs $0x2065766c6f736572,%rax
  4025f2:	76 65 20 
  4025f5:	48 89 43 18          	mov    %rax,0x18(%rbx)
  4025f9:	48 b8 73 65 72 76 65 	movabs $0x6120726576726573,%rax
  402600:	72 20 61 
  402603:	48 89 43 20          	mov    %rax,0x20(%rbx)
  402607:	c7 43 28 64 64 72 65 	movl   $0x65726464,0x28(%rbx)
  40260e:	66 c7 43 2c 73 73    	movw   $0x7373,0x2c(%rbx)
  402614:	c6 43 2e 00          	movb   $0x0,0x2e(%rbx)
  402618:	89 ef                	mov    %ebp,%edi
  40261a:	e8 21 e7 ff ff       	callq  400d40 <close@plt>
  40261f:	b8 ff ff ff ff       	mov    $0xffffffff,%eax
  402624:	e9 10 06 00 00       	jmpq   402c39 <submitr+0x735>
  402629:	48 c7 44 24 30 00 00 	movq   $0x0,0x30(%rsp)
  402630:	00 00 
  402632:	48 c7 44 24 38 00 00 	movq   $0x0,0x38(%rsp)
  402639:	00 00 
  40263b:	66 c7 44 24 30 02 00 	movw   $0x2,0x30(%rsp)
  402642:	48 63 50 14          	movslq 0x14(%rax),%rdx
  402646:	48 8b 40 18          	mov    0x18(%rax),%rax
  40264a:	48 8b 30             	mov    (%rax),%rsi
  40264d:	48 8d 7c 24 34       	lea    0x34(%rsp),%rdi
  402652:	b9 0c 00 00 00       	mov    $0xc,%ecx
  402657:	e8 34 e7 ff ff       	callq  400d90 <__memmove_chk@plt>
  40265c:	0f b7 44 24 14       	movzwl 0x14(%rsp),%eax
  402661:	66 c1 c8 08          	ror    $0x8,%ax
  402665:	66 89 44 24 32       	mov    %ax,0x32(%rsp)
  40266a:	ba 10 00 00 00       	mov    $0x10,%edx
  40266f:	48 8d 74 24 30       	lea    0x30(%rsp),%rsi
  402674:	89 ef                	mov    %ebp,%edi
  402676:	e8 05 e8 ff ff       	callq  400e80 <connect@plt>
  40267b:	85 c0                	test   %eax,%eax
  40267d:	79 59                	jns    4026d8 <submitr+0x1d4>
  40267f:	48 b8 45 72 72 6f 72 	movabs $0x55203a726f727245,%rax
  402686:	3a 20 55 
  402689:	48 89 03             	mov    %rax,(%rbx)
  40268c:	48 b8 6e 61 62 6c 65 	movabs $0x6f7420656c62616e,%rax
  402693:	20 74 6f 
  402696:	48 89 43 08          	mov    %rax,0x8(%rbx)
  40269a:	48 b8 20 63 6f 6e 6e 	movabs $0x7463656e6e6f6320,%rax
  4026a1:	65 63 74 
  4026a4:	48 89 43 10          	mov    %rax,0x10(%rbx)
  4026a8:	48 b8 20 74 6f 20 74 	movabs $0x20656874206f7420,%rax
  4026af:	68 65 20 
  4026b2:	48 89 43 18          	mov    %rax,0x18(%rbx)
  4026b6:	c7 43 20 73 65 72 76 	movl   $0x76726573,0x20(%rbx)
  4026bd:	66 c7 43 24 65 72    	movw   $0x7265,0x24(%rbx)
  4026c3:	c6 43 26 00          	movb   $0x0,0x26(%rbx)
  4026c7:	89 ef                	mov    %ebp,%edi
  4026c9:	e8 72 e6 ff ff       	callq  400d40 <close@plt>
  4026ce:	b8 ff ff ff ff       	mov    $0xffffffff,%eax
  4026d3:	e9 61 05 00 00       	jmpq   402c39 <submitr+0x735>
  4026d8:	48 c7 c2 ff ff ff ff 	mov    $0xffffffffffffffff,%rdx
  4026df:	4c 89 ef             	mov    %r13,%rdi
  4026e2:	b8 00 00 00 00       	mov    $0x0,%eax
  4026e7:	48 89 d1             	mov    %rdx,%rcx
  4026ea:	f2 ae                	repnz scas %es:(%rdi),%al
  4026ec:	48 f7 d1             	not    %rcx
  4026ef:	48 89 ce             	mov    %rcx,%rsi
  4026f2:	4c 89 ff             	mov    %r15,%rdi
  4026f5:	48 89 d1             	mov    %rdx,%rcx
  4026f8:	f2 ae                	repnz scas %es:(%rdi),%al
  4026fa:	48 f7 d1             	not    %rcx
  4026fd:	49 89 c8             	mov    %rcx,%r8
  402700:	4c 89 f7             	mov    %r14,%rdi
  402703:	48 89 d1             	mov    %rdx,%rcx
  402706:	f2 ae                	repnz scas %es:(%rdi),%al
  402708:	49 29 c8             	sub    %rcx,%r8
  40270b:	48 8b 7c 24 18       	mov    0x18(%rsp),%rdi
  402710:	48 89 d1             	mov    %rdx,%rcx
  402713:	f2 ae                	repnz scas %es:(%rdi),%al
  402715:	49 29 c8             	sub    %rcx,%r8
  402718:	48 8d 44 76 fd       	lea    -0x3(%rsi,%rsi,2),%rax
  40271d:	49 8d 44 00 7b       	lea    0x7b(%r8,%rax,1),%rax
  402722:	48 3d 00 20 00 00    	cmp    $0x2000,%rax
  402728:	76 72                	jbe    40279c <submitr+0x298>
  40272a:	48 b8 45 72 72 6f 72 	movabs $0x52203a726f727245,%rax
  402731:	3a 20 52 
  402734:	48 89 03             	mov    %rax,(%rbx)
  402737:	48 b8 65 73 75 6c 74 	movabs $0x747320746c757365,%rax
  40273e:	20 73 74 
  402741:	48 89 43 08          	mov    %rax,0x8(%rbx)
  402745:	48 b8 72 69 6e 67 20 	movabs $0x6f6f7420676e6972,%rax
  40274c:	74 6f 6f 
  40274f:	48 89 43 10          	mov    %rax,0x10(%rbx)
  402753:	48 b8 20 6c 61 72 67 	movabs $0x202e656772616c20,%rax
  40275a:	65 2e 20 
  40275d:	48 89 43 18          	mov    %rax,0x18(%rbx)
  402761:	48 b8 49 6e 63 72 65 	movabs $0x6573616572636e49,%rax
  402768:	61 73 65 
  40276b:	48 89 43 20          	mov    %rax,0x20(%rbx)
  40276f:	48 b8 20 53 55 42 4d 	movabs $0x5254494d42555320,%rax
  402776:	49 54 52 
  402779:	48 89 43 28          	mov    %rax,0x28(%rbx)
  40277d:	48 b8 5f 4d 41 58 42 	movabs $0x46554258414d5f,%rax
  402784:	55 46 00 
  402787:	48 89 43 30          	mov    %rax,0x30(%rbx)
  40278b:	89 ef                	mov    %ebp,%edi
  40278d:	e8 ae e5 ff ff       	callq  400d40 <close@plt>
  402792:	b8 ff ff ff ff       	mov    $0xffffffff,%eax
  402797:	e9 9d 04 00 00       	jmpq   402c39 <submitr+0x735>
  40279c:	48 8d b4 24 40 20 00 	lea    0x2040(%rsp),%rsi
  4027a3:	00 
  4027a4:	b9 00 04 00 00       	mov    $0x400,%ecx
  4027a9:	b8 00 00 00 00       	mov    $0x0,%eax
  4027ae:	48 89 f7             	mov    %rsi,%rdi
  4027b1:	f3 48 ab             	rep stos %rax,%es:(%rdi)
  4027b4:	4c 89 ef             	mov    %r13,%rdi
  4027b7:	e8 3b fc ff ff       	callq  4023f7 <urlencode>
  4027bc:	85 c0                	test   %eax,%eax
  4027be:	0f 89 8a 00 00 00    	jns    40284e <submitr+0x34a>
  4027c4:	48 b8 45 72 72 6f 72 	movabs $0x52203a726f727245,%rax
  4027cb:	3a 20 52 
  4027ce:	48 89 03             	mov    %rax,(%rbx)
  4027d1:	48 b8 65 73 75 6c 74 	movabs $0x747320746c757365,%rax
  4027d8:	20 73 74 
  4027db:	48 89 43 08          	mov    %rax,0x8(%rbx)
  4027df:	48 b8 72 69 6e 67 20 	movabs $0x6e6f6320676e6972,%rax
  4027e6:	63 6f 6e 
  4027e9:	48 89 43 10          	mov    %rax,0x10(%rbx)
  4027ed:	48 b8 74 61 69 6e 73 	movabs $0x6e6120736e696174,%rax
  4027f4:	20 61 6e 
  4027f7:	48 89 43 18          	mov    %rax,0x18(%rbx)
  4027fb:	48 b8 20 69 6c 6c 65 	movabs $0x6c6167656c6c6920,%rax
  402802:	67 61 6c 
  402805:	48 89 43 20          	mov    %rax,0x20(%rbx)
  402809:	48 b8 20 6f 72 20 75 	movabs $0x72706e7520726f20,%rax
  402810:	6e 70 72 
  402813:	48 89 43 28          	mov    %rax,0x28(%rbx)
  402817:	48 b8 69 6e 74 61 62 	movabs $0x20656c6261746e69,%rax
  40281e:	6c 65 20 
  402821:	48 89 43 30          	mov    %rax,0x30(%rbx)
  402825:	48 b8 63 68 61 72 61 	movabs $0x6574636172616863,%rax
  40282c:	63 74 65 
  40282f:	48 89 43 38          	mov    %rax,0x38(%rbx)
  402833:	66 c7 43 40 72 2e    	movw   $0x2e72,0x40(%rbx)
  402839:	c6 43 42 00          	movb   $0x0,0x42(%rbx)
  40283d:	89 ef                	mov    %ebp,%edi
  40283f:	e8 fc e4 ff ff       	callq  400d40 <close@plt>
  402844:	b8 ff ff ff ff       	mov    $0xffffffff,%eax
  402849:	e9 eb 03 00 00       	jmpq   402c39 <submitr+0x735>
  40284e:	4c 89 64 24 08       	mov    %r12,0x8(%rsp)
  402853:	48 8d 84 24 40 20 00 	lea    0x2040(%rsp),%rax
  40285a:	00 
  40285b:	48 89 04 24          	mov    %rax,(%rsp)
  40285f:	4d 89 f9             	mov    %r15,%r9
  402862:	4d 89 f0             	mov    %r14,%r8
  402865:	b9 48 37 40 00       	mov    $0x403748,%ecx
  40286a:	ba 00 20 00 00       	mov    $0x2000,%edx
  40286f:	be 01 00 00 00       	mov    $0x1,%esi
  402874:	48 8d 7c 24 40       	lea    0x40(%rsp),%rdi
  402879:	b8 00 00 00 00       	mov    $0x0,%eax
  40287e:	e8 1d e6 ff ff       	callq  400ea0 <__sprintf_chk@plt>
  402883:	48 8d 7c 24 40       	lea    0x40(%rsp),%rdi
  402888:	b8 00 00 00 00       	mov    $0x0,%eax
  40288d:	48 c7 c1 ff ff ff ff 	mov    $0xffffffffffffffff,%rcx
  402894:	f2 ae                	repnz scas %es:(%rdi),%al
  402896:	48 f7 d1             	not    %rcx
  402899:	48 8d 51 ff          	lea    -0x1(%rcx),%rdx
  40289d:	48 8d 74 24 40       	lea    0x40(%rsp),%rsi
  4028a2:	89 ef                	mov    %ebp,%edi
  4028a4:	e8 e7 f9 ff ff       	callq  402290 <rio_writen>
  4028a9:	48 85 c0             	test   %rax,%rax
  4028ac:	79 6e                	jns    40291c <submitr+0x418>
  4028ae:	48 b8 45 72 72 6f 72 	movabs $0x43203a726f727245,%rax
  4028b5:	3a 20 43 
  4028b8:	48 89 03             	mov    %rax,(%rbx)
  4028bb:	48 b8 6c 69 65 6e 74 	movabs $0x6e7520746e65696c,%rax
  4028c2:	20 75 6e 
  4028c5:	48 89 43 08          	mov    %rax,0x8(%rbx)
  4028c9:	48 b8 61 62 6c 65 20 	movabs $0x206f7420656c6261,%rax
  4028d0:	74 6f 20 
  4028d3:	48 89 43 10          	mov    %rax,0x10(%rbx)
  4028d7:	48 b8 77 72 69 74 65 	movabs $0x6f74206574697277,%rax
  4028de:	20 74 6f 
  4028e1:	48 89 43 18          	mov    %rax,0x18(%rbx)
  4028e5:	48 b8 20 74 68 65 20 	movabs $0x7365722065687420,%rax
  4028ec:	72 65 73 
  4028ef:	48 89 43 20          	mov    %rax,0x20(%rbx)
  4028f3:	48 b8 75 6c 74 20 73 	movabs $0x7672657320746c75,%rax
  4028fa:	65 72 76 
  4028fd:	48 89 43 28          	mov    %rax,0x28(%rbx)
  402901:	66 c7 43 30 65 72    	movw   $0x7265,0x30(%rbx)
  402907:	c6 43 32 00          	movb   $0x0,0x32(%rbx)
  40290b:	89 ef                	mov    %ebp,%edi
  40290d:	e8 2e e4 ff ff       	callq  400d40 <close@plt>
  402912:	b8 ff ff ff ff       	mov    $0xffffffff,%eax
  402917:	e9 1d 03 00 00       	jmpq   402c39 <submitr+0x735>
  40291c:	89 ee                	mov    %ebp,%esi
  40291e:	48 8d bc 24 40 80 00 	lea    0x8040(%rsp),%rdi
  402925:	00 
  402926:	e8 25 f9 ff ff       	callq  402250 <rio_readinitb>
  40292b:	ba 00 20 00 00       	mov    $0x2000,%edx
  402930:	48 8d 74 24 40       	lea    0x40(%rsp),%rsi
  402935:	48 8d bc 24 40 80 00 	lea    0x8040(%rsp),%rdi
  40293c:	00 
  40293d:	e8 31 fa ff ff       	callq  402373 <rio_readlineb>
  402942:	48 85 c0             	test   %rax,%rax
  402945:	7f 7d                	jg     4029c4 <submitr+0x4c0>
  402947:	48 b8 45 72 72 6f 72 	movabs $0x43203a726f727245,%rax
  40294e:	3a 20 43 
  402951:	48 89 03             	mov    %rax,(%rbx)
  402954:	48 b8 6c 69 65 6e 74 	movabs $0x6e7520746e65696c,%rax
  40295b:	20 75 6e 
  40295e:	48 89 43 08          	mov    %rax,0x8(%rbx)
  402962:	48 b8 61 62 6c 65 20 	movabs $0x206f7420656c6261,%rax
  402969:	74 6f 20 
  40296c:	48 89 43 10          	mov    %rax,0x10(%rbx)
  402970:	48 b8 72 65 61 64 20 	movabs $0x7269662064616572,%rax
  402977:	66 69 72 
  40297a:	48 89 43 18          	mov    %rax,0x18(%rbx)
  40297e:	48 b8 73 74 20 68 65 	movabs $0x6564616568207473,%rax
  402985:	61 64 65 
  402988:	48 89 43 20          	mov    %rax,0x20(%rbx)
  40298c:	48 b8 72 20 66 72 6f 	movabs $0x72206d6f72662072,%rax
  402993:	6d 20 72 
  402996:	48 89 43 28          	mov    %rax,0x28(%rbx)
  40299a:	48 b8 65 73 75 6c 74 	movabs $0x657320746c757365,%rax
  4029a1:	20 73 65 
  4029a4:	48 89 43 30          	mov    %rax,0x30(%rbx)
  4029a8:	c7 43 38 72 76 65 72 	movl   $0x72657672,0x38(%rbx)
  4029af:	c6 43 3c 00          	movb   $0x0,0x3c(%rbx)
  4029b3:	89 ef                	mov    %ebp,%edi
  4029b5:	e8 86 e3 ff ff       	callq  400d40 <close@plt>
  4029ba:	b8 ff ff ff ff       	mov    $0xffffffff,%eax
  4029bf:	e9 75 02 00 00       	jmpq   402c39 <submitr+0x735>
  4029c4:	4c 8d 84 24 40 60 00 	lea    0x6040(%rsp),%r8
  4029cb:	00 
  4029cc:	48 8d 4c 24 2c       	lea    0x2c(%rsp),%rcx
  4029d1:	48 8d 94 24 40 40 00 	lea    0x4040(%rsp),%rdx
  4029d8:	00 
  4029d9:	be bf 37 40 00       	mov    $0x4037bf,%esi
  4029de:	48 8d 7c 24 40       	lea    0x40(%rsp),%rdi
  4029e3:	b8 00 00 00 00       	mov    $0x0,%eax
  4029e8:	e8 13 e4 ff ff       	callq  400e00 <__isoc99_sscanf@plt>
  4029ed:	41 bc 0d 00 00 00    	mov    $0xd,%r12d
  4029f3:	41 bd 0a 00 00 00    	mov    $0xa,%r13d
  4029f9:	e9 95 00 00 00       	jmpq   402a93 <submitr+0x58f>
  4029fe:	ba 00 20 00 00       	mov    $0x2000,%edx
  402a03:	48 8d 74 24 40       	lea    0x40(%rsp),%rsi
  402a08:	48 8d bc 24 40 80 00 	lea    0x8040(%rsp),%rdi
  402a0f:	00 
  402a10:	e8 5e f9 ff ff       	callq  402373 <rio_readlineb>
  402a15:	48 85 c0             	test   %rax,%rax
  402a18:	7f 79                	jg     402a93 <submitr+0x58f>
  402a1a:	48 b8 45 72 72 6f 72 	movabs $0x43203a726f727245,%rax
  402a21:	3a 20 43 
  402a24:	48 89 03             	mov    %rax,(%rbx)
  402a27:	48 b8 6c 69 65 6e 74 	movabs $0x6e7520746e65696c,%rax
  402a2e:	20 75 6e 
  402a31:	48 89 43 08          	mov    %rax,0x8(%rbx)
  402a35:	48 b8 61 62 6c 65 20 	movabs $0x206f7420656c6261,%rax
  402a3c:	74 6f 20 
  402a3f:	48 89 43 10          	mov    %rax,0x10(%rbx)
  402a43:	48 b8 72 65 61 64 20 	movabs $0x6165682064616572,%rax
  402a4a:	68 65 61 
  402a4d:	48 89 43 18          	mov    %rax,0x18(%rbx)
  402a51:	48 b8 64 65 72 73 20 	movabs $0x6f72662073726564,%rax
  402a58:	66 72 6f 
  402a5b:	48 89 43 20          	mov    %rax,0x20(%rbx)
  402a5f:	48 b8 6d 20 74 68 65 	movabs $0x657220656874206d,%rax
  402a66:	20 72 65 
  402a69:	48 89 43 28          	mov    %rax,0x28(%rbx)
  402a6d:	48 b8 73 75 6c 74 20 	movabs $0x72657320746c7573,%rax
  402a74:	73 65 72 
  402a77:	48 89 43 30          	mov    %rax,0x30(%rbx)
  402a7b:	c7 43 38 76 65 72 00 	movl   $0x726576,0x38(%rbx)
  402a82:	89 ef                	mov    %ebp,%edi
  402a84:	e8 b7 e2 ff ff       	callq  400d40 <close@plt>
  402a89:	b8 ff ff ff ff       	mov    $0xffffffff,%eax
  402a8e:	e9 a6 01 00 00       	jmpq   402c39 <submitr+0x735>
  402a93:	0f b6 44 24 40       	movzbl 0x40(%rsp),%eax
  402a98:	44 89 e6             	mov    %r12d,%esi
  402a9b:	29 c6                	sub    %eax,%esi
  402a9d:	89 f0                	mov    %esi,%eax
  402a9f:	75 15                	jne    402ab6 <submitr+0x5b2>
  402aa1:	0f b6 44 24 41       	movzbl 0x41(%rsp),%eax
  402aa6:	44 89 ea             	mov    %r13d,%edx
  402aa9:	29 c2                	sub    %eax,%edx
  402aab:	89 d0                	mov    %edx,%eax
  402aad:	75 07                	jne    402ab6 <submitr+0x5b2>
  402aaf:	0f b6 44 24 42       	movzbl 0x42(%rsp),%eax
  402ab4:	f7 d8                	neg    %eax
  402ab6:	85 c0                	test   %eax,%eax
  402ab8:	0f 85 40 ff ff ff    	jne    4029fe <submitr+0x4fa>
  402abe:	ba 00 20 00 00       	mov    $0x2000,%edx
  402ac3:	48 8d 74 24 40       	lea    0x40(%rsp),%rsi
  402ac8:	48 8d bc 24 40 80 00 	lea    0x8040(%rsp),%rdi
  402acf:	00 
  402ad0:	e8 9e f8 ff ff       	callq  402373 <rio_readlineb>
  402ad5:	48 85 c0             	test   %rax,%rax
  402ad8:	0f 8f 83 00 00 00    	jg     402b61 <submitr+0x65d>
  402ade:	48 b8 45 72 72 6f 72 	movabs $0x43203a726f727245,%rax
  402ae5:	3a 20 43 
  402ae8:	48 89 03             	mov    %rax,(%rbx)
  402aeb:	48 b8 6c 69 65 6e 74 	movabs $0x6e7520746e65696c,%rax
  402af2:	20 75 6e 
  402af5:	48 89 43 08          	mov    %rax,0x8(%rbx)
  402af9:	48 b8 61 62 6c 65 20 	movabs $0x206f7420656c6261,%rax
  402b00:	74 6f 20 
  402b03:	48 89 43 10          	mov    %rax,0x10(%rbx)
  402b07:	48 b8 72 65 61 64 20 	movabs $0x6174732064616572,%rax
  402b0e:	73 74 61 
  402b11:	48 89 43 18          	mov    %rax,0x18(%rbx)
  402b15:	48 b8 74 75 73 20 6d 	movabs $0x7373656d20737574,%rax
  402b1c:	65 73 73 
  402b1f:	48 89 43 20          	mov    %rax,0x20(%rbx)
  402b23:	48 b8 61 67 65 20 66 	movabs $0x6d6f726620656761,%rax
  402b2a:	72 6f 6d 
  402b2d:	48 89 43 28          	mov    %rax,0x28(%rbx)
  402b31:	48 b8 20 72 65 73 75 	movabs $0x20746c7573657220,%rax
  402b38:	6c 74 20 
  402b3b:	48 89 43 30          	mov    %rax,0x30(%rbx)
  402b3f:	c7 43 38 73 65 72 76 	movl   $0x76726573,0x38(%rbx)
  402b46:	66 c7 43 3c 65 72    	movw   $0x7265,0x3c(%rbx)
  402b4c:	c6 43 3e 00          	movb   $0x0,0x3e(%rbx)
  402b50:	89 ef                	mov    %ebp,%edi
  402b52:	e8 e9 e1 ff ff       	callq  400d40 <close@plt>
  402b57:	b8 ff ff ff ff       	mov    $0xffffffff,%eax
  402b5c:	e9 d8 00 00 00       	jmpq   402c39 <submitr+0x735>
  402b61:	44 8b 44 24 2c       	mov    0x2c(%rsp),%r8d
  402b66:	41 81 f8 c8 00 00 00 	cmp    $0xc8,%r8d
  402b6d:	74 37                	je     402ba6 <submitr+0x6a2>
  402b6f:	4c 8d 8c 24 40 60 00 	lea    0x6040(%rsp),%r9
  402b76:	00 
  402b77:	b9 88 37 40 00       	mov    $0x403788,%ecx
  402b7c:	48 c7 c2 ff ff ff ff 	mov    $0xffffffffffffffff,%rdx
  402b83:	be 01 00 00 00       	mov    $0x1,%esi
  402b88:	48 89 df             	mov    %rbx,%rdi
  402b8b:	b8 00 00 00 00       	mov    $0x0,%eax
  402b90:	e8 0b e3 ff ff       	callq  400ea0 <__sprintf_chk@plt>
  402b95:	89 ef                	mov    %ebp,%edi
  402b97:	e8 a4 e1 ff ff       	callq  400d40 <close@plt>
  402b9c:	b8 ff ff ff ff       	mov    $0xffffffff,%eax
  402ba1:	e9 93 00 00 00       	jmpq   402c39 <submitr+0x735>
  402ba6:	48 8d 74 24 40       	lea    0x40(%rsp),%rsi
  402bab:	48 89 df             	mov    %rbx,%rdi
  402bae:	e8 1d e1 ff ff       	callq  400cd0 <strcpy@plt>
  402bb3:	89 ef                	mov    %ebp,%edi
  402bb5:	e8 86 e1 ff ff       	callq  400d40 <close@plt>
  402bba:	0f b6 03             	movzbl (%rbx),%eax
  402bbd:	ba 4f 00 00 00       	mov    $0x4f,%edx
  402bc2:	29 c2                	sub    %eax,%edx
  402bc4:	75 22                	jne    402be8 <submitr+0x6e4>
  402bc6:	0f b6 4b 01          	movzbl 0x1(%rbx),%ecx
  402bca:	b8 4b 00 00 00       	mov    $0x4b,%eax
  402bcf:	29 c8                	sub    %ecx,%eax
  402bd1:	75 17                	jne    402bea <submitr+0x6e6>
  402bd3:	0f b6 4b 02          	movzbl 0x2(%rbx),%ecx
  402bd7:	b8 0a 00 00 00       	mov    $0xa,%eax
  402bdc:	29 c8                	sub    %ecx,%eax
  402bde:	75 0a                	jne    402bea <submitr+0x6e6>
  402be0:	0f b6 43 03          	movzbl 0x3(%rbx),%eax
  402be4:	f7 d8                	neg    %eax
  402be6:	eb 02                	jmp    402bea <submitr+0x6e6>
  402be8:	89 d0                	mov    %edx,%eax
  402bea:	85 c0                	test   %eax,%eax
  402bec:	74 38                	je     402c26 <submitr+0x722>
  402bee:	bf d0 37 40 00       	mov    $0x4037d0,%edi
  402bf3:	b9 05 00 00 00       	mov    $0x5,%ecx
  402bf8:	48 89 de             	mov    %rbx,%rsi
  402bfb:	f3 a6                	repz cmpsb %es:(%rdi),%ds:(%rsi)
  402bfd:	0f 97 c1             	seta   %cl
  402c00:	0f 92 c0             	setb   %al
  402c03:	38 c1                	cmp    %al,%cl
  402c05:	74 26                	je     402c2d <submitr+0x729>
  402c07:	85 d2                	test   %edx,%edx
  402c09:	75 10                	jne    402c1b <submitr+0x717>
  402c0b:	0f b6 43 01          	movzbl 0x1(%rbx),%eax
  402c0f:	b2 4b                	mov    $0x4b,%dl
  402c11:	29 c2                	sub    %eax,%edx
  402c13:	75 06                	jne    402c1b <submitr+0x717>
  402c15:	0f b6 53 02          	movzbl 0x2(%rbx),%edx
  402c19:	f7 da                	neg    %edx
  402c1b:	85 d2                	test   %edx,%edx
  402c1d:	75 15                	jne    402c34 <submitr+0x730>
  402c1f:	b8 00 00 00 00       	mov    $0x0,%eax
  402c24:	eb 13                	jmp    402c39 <submitr+0x735>
  402c26:	b8 00 00 00 00       	mov    $0x0,%eax
  402c2b:	eb 0c                	jmp    402c39 <submitr+0x735>
  402c2d:	b8 00 00 00 00       	mov    $0x0,%eax
  402c32:	eb 05                	jmp    402c39 <submitr+0x735>
  402c34:	b8 ff ff ff ff       	mov    $0xffffffff,%eax
  402c39:	48 8b 9c 24 58 a0 00 	mov    0xa058(%rsp),%rbx
  402c40:	00 
  402c41:	64 48 33 1c 25 28 00 	xor    %fs:0x28,%rbx
  402c48:	00 00 
  402c4a:	74 05                	je     402c51 <submitr+0x74d>
  402c4c:	e8 af e0 ff ff       	callq  400d00 <__stack_chk_fail@plt>
  402c51:	48 81 c4 68 a0 00 00 	add    $0xa068,%rsp
  402c58:	5b                   	pop    %rbx
  402c59:	5d                   	pop    %rbp
  402c5a:	41 5c                	pop    %r12
  402c5c:	41 5d                	pop    %r13
  402c5e:	41 5e                	pop    %r14
  402c60:	41 5f                	pop    %r15
  402c62:	c3                   	retq   

0000000000402c63 <init_timeout>:
  402c63:	53                   	push   %rbx
  402c64:	89 fb                	mov    %edi,%ebx
  402c66:	85 ff                	test   %edi,%edi
  402c68:	74 1f                	je     402c89 <init_timeout+0x26>
  402c6a:	85 ff                	test   %edi,%edi
  402c6c:	79 05                	jns    402c73 <init_timeout+0x10>
  402c6e:	bb 00 00 00 00       	mov    $0x0,%ebx
  402c73:	be 62 22 40 00       	mov    $0x402262,%esi
  402c78:	bf 0e 00 00 00       	mov    $0xe,%edi
  402c7d:	e8 ee e0 ff ff       	callq  400d70 <signal@plt>
  402c82:	89 df                	mov    %ebx,%edi
  402c84:	e8 a7 e0 ff ff       	callq  400d30 <alarm@plt>
  402c89:	5b                   	pop    %rbx
  402c8a:	c3                   	retq   

0000000000402c8b <init_driver>:
  402c8b:	55                   	push   %rbp
  402c8c:	53                   	push   %rbx
  402c8d:	48 83 ec 28          	sub    $0x28,%rsp
  402c91:	48 89 fd             	mov    %rdi,%rbp
  402c94:	64 48 8b 04 25 28 00 	mov    %fs:0x28,%rax
  402c9b:	00 00 
  402c9d:	48 89 44 24 18       	mov    %rax,0x18(%rsp)
  402ca2:	31 c0                	xor    %eax,%eax
  402ca4:	be 01 00 00 00       	mov    $0x1,%esi
  402ca9:	bf 0d 00 00 00       	mov    $0xd,%edi
  402cae:	e8 bd e0 ff ff       	callq  400d70 <signal@plt>
  402cb3:	be 01 00 00 00       	mov    $0x1,%esi
  402cb8:	bf 1d 00 00 00       	mov    $0x1d,%edi
  402cbd:	e8 ae e0 ff ff       	callq  400d70 <signal@plt>
  402cc2:	be 01 00 00 00       	mov    $0x1,%esi
  402cc7:	bf 1d 00 00 00       	mov    $0x1d,%edi
  402ccc:	e8 9f e0 ff ff       	callq  400d70 <signal@plt>
  402cd1:	ba 00 00 00 00       	mov    $0x0,%edx
  402cd6:	be 01 00 00 00       	mov    $0x1,%esi
  402cdb:	bf 02 00 00 00       	mov    $0x2,%edi
  402ce0:	e8 cb e1 ff ff       	callq  400eb0 <socket@plt>
  402ce5:	89 c3                	mov    %eax,%ebx
  402ce7:	85 c0                	test   %eax,%eax
  402ce9:	79 4f                	jns    402d3a <init_driver+0xaf>
  402ceb:	48 b8 45 72 72 6f 72 	movabs $0x43203a726f727245,%rax
  402cf2:	3a 20 43 
  402cf5:	48 89 45 00          	mov    %rax,0x0(%rbp)
  402cf9:	48 b8 6c 69 65 6e 74 	movabs $0x6e7520746e65696c,%rax
  402d00:	20 75 6e 
  402d03:	48 89 45 08          	mov    %rax,0x8(%rbp)
  402d07:	48 b8 61 62 6c 65 20 	movabs $0x206f7420656c6261,%rax
  402d0e:	74 6f 20 
  402d11:	48 89 45 10          	mov    %rax,0x10(%rbp)
  402d15:	48 b8 63 72 65 61 74 	movabs $0x7320657461657263,%rax
  402d1c:	65 20 73 
  402d1f:	48 89 45 18          	mov    %rax,0x18(%rbp)
  402d23:	c7 45 20 6f 63 6b 65 	movl   $0x656b636f,0x20(%rbp)
  402d2a:	66 c7 45 24 74 00    	movw   $0x74,0x24(%rbp)
  402d30:	b8 ff ff ff ff       	mov    $0xffffffff,%eax
  402d35:	e9 28 01 00 00       	jmpq   402e62 <init_driver+0x1d7>
  402d3a:	bf d5 37 40 00       	mov    $0x4037d5,%edi
  402d3f:	e8 3c e0 ff ff       	callq  400d80 <gethostbyname@plt>
  402d44:	48 85 c0             	test   %rax,%rax
  402d47:	75 68                	jne    402db1 <init_driver+0x126>
  402d49:	48 b8 45 72 72 6f 72 	movabs $0x44203a726f727245,%rax
  402d50:	3a 20 44 
  402d53:	48 89 45 00          	mov    %rax,0x0(%rbp)
  402d57:	48 b8 4e 53 20 69 73 	movabs $0x6e7520736920534e,%rax
  402d5e:	20 75 6e 
  402d61:	48 89 45 08          	mov    %rax,0x8(%rbp)
  402d65:	48 b8 61 62 6c 65 20 	movabs $0x206f7420656c6261,%rax
  402d6c:	74 6f 20 
  402d6f:	48 89 45 10          	mov    %rax,0x10(%rbp)
  402d73:	48 b8 72 65 73 6f 6c 	movabs $0x2065766c6f736572,%rax
  402d7a:	76 65 20 
  402d7d:	48 89 45 18          	mov    %rax,0x18(%rbp)
  402d81:	48 b8 73 65 72 76 65 	movabs $0x6120726576726573,%rax
  402d88:	72 20 61 
  402d8b:	48 89 45 20          	mov    %rax,0x20(%rbp)
  402d8f:	c7 45 28 64 64 72 65 	movl   $0x65726464,0x28(%rbp)
  402d96:	66 c7 45 2c 73 73    	movw   $0x7373,0x2c(%rbp)
  402d9c:	c6 45 2e 00          	movb   $0x0,0x2e(%rbp)
  402da0:	89 df                	mov    %ebx,%edi
  402da2:	e8 99 df ff ff       	callq  400d40 <close@plt>
  402da7:	b8 ff ff ff ff       	mov    $0xffffffff,%eax
  402dac:	e9 b1 00 00 00       	jmpq   402e62 <init_driver+0x1d7>
  402db1:	48 c7 04 24 00 00 00 	movq   $0x0,(%rsp)
  402db8:	00 
  402db9:	48 c7 44 24 08 00 00 	movq   $0x0,0x8(%rsp)
  402dc0:	00 00 
  402dc2:	66 c7 04 24 02 00    	movw   $0x2,(%rsp)
  402dc8:	48 63 50 14          	movslq 0x14(%rax),%rdx
  402dcc:	48 8b 40 18          	mov    0x18(%rax),%rax
  402dd0:	48 8b 30             	mov    (%rax),%rsi
  402dd3:	48 8d 7c 24 04       	lea    0x4(%rsp),%rdi
  402dd8:	b9 0c 00 00 00       	mov    $0xc,%ecx
  402ddd:	e8 ae df ff ff       	callq  400d90 <__memmove_chk@plt>
  402de2:	66 c7 44 24 02 3c 9a 	movw   $0x9a3c,0x2(%rsp)
  402de9:	ba 10 00 00 00       	mov    $0x10,%edx
  402dee:	48 89 e6             	mov    %rsp,%rsi
  402df1:	89 df                	mov    %ebx,%edi
  402df3:	e8 88 e0 ff ff       	callq  400e80 <connect@plt>
  402df8:	85 c0                	test   %eax,%eax
  402dfa:	79 50                	jns    402e4c <init_driver+0x1c1>
  402dfc:	48 b8 45 72 72 6f 72 	movabs $0x55203a726f727245,%rax
  402e03:	3a 20 55 
  402e06:	48 89 45 00          	mov    %rax,0x0(%rbp)
  402e0a:	48 b8 6e 61 62 6c 65 	movabs $0x6f7420656c62616e,%rax
  402e11:	20 74 6f 
  402e14:	48 89 45 08          	mov    %rax,0x8(%rbp)
  402e18:	48 b8 20 63 6f 6e 6e 	movabs $0x7463656e6e6f6320,%rax
  402e1f:	65 63 74 
  402e22:	48 89 45 10          	mov    %rax,0x10(%rbp)
  402e26:	48 b8 20 74 6f 20 73 	movabs $0x76726573206f7420,%rax
  402e2d:	65 72 76 
  402e30:	48 89 45 18          	mov    %rax,0x18(%rbp)
  402e34:	66 c7 45 20 65 72    	movw   $0x7265,0x20(%rbp)
  402e3a:	c6 45 22 00          	movb   $0x0,0x22(%rbp)
  402e3e:	89 df                	mov    %ebx,%edi
  402e40:	e8 fb de ff ff       	callq  400d40 <close@plt>
  402e45:	b8 ff ff ff ff       	mov    $0xffffffff,%eax
  402e4a:	eb 16                	jmp    402e62 <init_driver+0x1d7>
  402e4c:	89 df                	mov    %ebx,%edi
  402e4e:	e8 ed de ff ff       	callq  400d40 <close@plt>
  402e53:	66 c7 45 00 4f 4b    	movw   $0x4b4f,0x0(%rbp)
  402e59:	c6 45 02 00          	movb   $0x0,0x2(%rbp)
  402e5d:	b8 00 00 00 00       	mov    $0x0,%eax
  402e62:	48 8b 4c 24 18       	mov    0x18(%rsp),%rcx
  402e67:	64 48 33 0c 25 28 00 	xor    %fs:0x28,%rcx
  402e6e:	00 00 
  402e70:	74 05                	je     402e77 <init_driver+0x1ec>
  402e72:	e8 89 de ff ff       	callq  400d00 <__stack_chk_fail@plt>
  402e77:	48 83 c4 28          	add    $0x28,%rsp
  402e7b:	5b                   	pop    %rbx
  402e7c:	5d                   	pop    %rbp
  402e7d:	c3                   	retq   

0000000000402e7e <driver_post>:
  402e7e:	53                   	push   %rbx
  402e7f:	48 83 ec 10          	sub    $0x10,%rsp
  402e83:	4c 89 cb             	mov    %r9,%rbx
  402e86:	45 85 c0             	test   %r8d,%r8d
  402e89:	74 27                	je     402eb2 <driver_post+0x34>
  402e8b:	48 89 ca             	mov    %rcx,%rdx
  402e8e:	be e4 37 40 00       	mov    $0x4037e4,%esi
  402e93:	bf 01 00 00 00       	mov    $0x1,%edi
  402e98:	b8 00 00 00 00       	mov    $0x0,%eax
  402e9d:	e8 7e df ff ff       	callq  400e20 <__printf_chk@plt>
  402ea2:	66 c7 03 4f 4b       	movw   $0x4b4f,(%rbx)
  402ea7:	c6 43 02 00          	movb   $0x0,0x2(%rbx)
  402eab:	b8 00 00 00 00       	mov    $0x0,%eax
  402eb0:	eb 39                	jmp    402eeb <driver_post+0x6d>
  402eb2:	48 85 ff             	test   %rdi,%rdi
  402eb5:	74 26                	je     402edd <driver_post+0x5f>
  402eb7:	80 3f 00             	cmpb   $0x0,(%rdi)
  402eba:	74 21                	je     402edd <driver_post+0x5f>
  402ebc:	4c 89 0c 24          	mov    %r9,(%rsp)
  402ec0:	49 89 c9             	mov    %rcx,%r9
  402ec3:	49 89 d0             	mov    %rdx,%r8
  402ec6:	48 89 f9             	mov    %rdi,%rcx
  402ec9:	48 89 f2             	mov    %rsi,%rdx
  402ecc:	be 9a 3c 00 00       	mov    $0x3c9a,%esi
  402ed1:	bf d5 37 40 00       	mov    $0x4037d5,%edi
  402ed6:	e8 29 f6 ff ff       	callq  402504 <submitr>
  402edb:	eb 0e                	jmp    402eeb <driver_post+0x6d>
  402edd:	66 c7 03 4f 4b       	movw   $0x4b4f,(%rbx)
  402ee2:	c6 43 02 00          	movb   $0x0,0x2(%rbx)
  402ee6:	b8 00 00 00 00       	mov    $0x0,%eax
  402eeb:	48 83 c4 10          	add    $0x10,%rsp
  402eef:	5b                   	pop    %rbx
  402ef0:	c3                   	retq   

0000000000402ef1 <check>:
  402ef1:	89 f8                	mov    %edi,%eax
  402ef3:	c1 e8 1c             	shr    $0x1c,%eax
  402ef6:	85 c0                	test   %eax,%eax
  402ef8:	74 1d                	je     402f17 <check+0x26>
  402efa:	b9 00 00 00 00       	mov    $0x0,%ecx
  402eff:	eb 0b                	jmp    402f0c <check+0x1b>
  402f01:	89 f8                	mov    %edi,%eax
  402f03:	d3 e8                	shr    %cl,%eax
  402f05:	3c 0a                	cmp    $0xa,%al
  402f07:	74 14                	je     402f1d <check+0x2c>
  402f09:	83 c1 08             	add    $0x8,%ecx
  402f0c:	83 f9 1f             	cmp    $0x1f,%ecx
  402f0f:	7e f0                	jle    402f01 <check+0x10>
  402f11:	b8 01 00 00 00       	mov    $0x1,%eax
  402f16:	c3                   	retq   
  402f17:	b8 00 00 00 00       	mov    $0x0,%eax
  402f1c:	c3                   	retq   
  402f1d:	b8 00 00 00 00       	mov    $0x0,%eax
  402f22:	c3                   	retq   

0000000000402f23 <gencookie>:
  402f23:	53                   	push   %rbx
  402f24:	83 c7 01             	add    $0x1,%edi
  402f27:	e8 84 dd ff ff       	callq  400cb0 <srandom@plt>
  402f2c:	e8 af de ff ff       	callq  400de0 <random@plt>
  402f31:	89 c3                	mov    %eax,%ebx
  402f33:	89 c7                	mov    %eax,%edi
  402f35:	e8 b7 ff ff ff       	callq  402ef1 <check>
  402f3a:	85 c0                	test   %eax,%eax
  402f3c:	74 ee                	je     402f2c <gencookie+0x9>
  402f3e:	89 d8                	mov    %ebx,%eax
  402f40:	5b                   	pop    %rbx
  402f41:	c3                   	retq   
  402f42:	66 2e 0f 1f 84 00 00 	nopw   %cs:0x0(%rax,%rax,1)
  402f49:	00 00 00 
  402f4c:	0f 1f 40 00          	nopl   0x0(%rax)

0000000000402f50 <__libc_csu_init>:
  402f50:	41 57                	push   %r15
  402f52:	41 89 ff             	mov    %edi,%r15d
  402f55:	41 56                	push   %r14
  402f57:	49 89 f6             	mov    %rsi,%r14
  402f5a:	41 55                	push   %r13
  402f5c:	49 89 d5             	mov    %rdx,%r13
  402f5f:	41 54                	push   %r12
  402f61:	4c 8d 25 a8 1e 20 00 	lea    0x201ea8(%rip),%r12        # 604e10 <__frame_dummy_init_array_entry>
  402f68:	55                   	push   %rbp
  402f69:	48 8d 2d a8 1e 20 00 	lea    0x201ea8(%rip),%rbp        # 604e18 <__init_array_end>
  402f70:	53                   	push   %rbx
  402f71:	4c 29 e5             	sub    %r12,%rbp
  402f74:	31 db                	xor    %ebx,%ebx
  402f76:	48 c1 fd 03          	sar    $0x3,%rbp
  402f7a:	48 83 ec 08          	sub    $0x8,%rsp
  402f7e:	e8 dd dc ff ff       	callq  400c60 <_init>
  402f83:	48 85 ed             	test   %rbp,%rbp
  402f86:	74 1e                	je     402fa6 <__libc_csu_init+0x56>
  402f88:	0f 1f 84 00 00 00 00 	nopl   0x0(%rax,%rax,1)
  402f8f:	00 
  402f90:	4c 89 ea             	mov    %r13,%rdx
  402f93:	4c 89 f6             	mov    %r14,%rsi
  402f96:	44 89 ff             	mov    %r15d,%edi
  402f99:	41 ff 14 dc          	callq  *(%r12,%rbx,8)
  402f9d:	48 83 c3 01          	add    $0x1,%rbx
  402fa1:	48 39 eb             	cmp    %rbp,%rbx
  402fa4:	75 ea                	jne    402f90 <__libc_csu_init+0x40>
  402fa6:	48 83 c4 08          	add    $0x8,%rsp
  402faa:	5b                   	pop    %rbx
  402fab:	5d                   	pop    %rbp
  402fac:	41 5c                	pop    %r12
  402fae:	41 5d                	pop    %r13
  402fb0:	41 5e                	pop    %r14
  402fb2:	41 5f                	pop    %r15
  402fb4:	c3                   	retq   
  402fb5:	66 66 2e 0f 1f 84 00 	data32 nopw %cs:0x0(%rax,%rax,1)
  402fbc:	00 00 00 00 

0000000000402fc0 <__libc_csu_fini>:
  402fc0:	f3 c3                	repz retq 

Disassembly of section .fini:

0000000000402fc4 <_fini>:
  402fc4:	48 83 ec 08          	sub    $0x8,%rsp
  402fc8:	48 83 c4 08          	add    $0x8,%rsp
  402fcc:	c3                   	retq   
